
ctarget:     file format elf64-x86-64


Disassembly of section .init:

0000000000001000 <_init>:
    1000:	f3 0f 1e fa          	endbr64 
    1004:	48 83 ec 08          	sub    $0x8,%rsp
    1008:	48 8b 05 d9 5f 00 00 	mov    0x5fd9(%rip),%rax        # 6fe8 <__gmon_start__>
    100f:	48 85 c0             	test   %rax,%rax
    1012:	74 02                	je     1016 <_init+0x16>
    1014:	ff d0                	callq  *%rax
    1016:	48 83 c4 08          	add    $0x8,%rsp
    101a:	c3                   	retq   

Disassembly of section .plt:

0000000000001020 <.plt>:
    1020:	ff 35 9a 5e 00 00    	pushq  0x5e9a(%rip)        # 6ec0 <_GLOBAL_OFFSET_TABLE_+0x8>
    1026:	f2 ff 25 9b 5e 00 00 	bnd jmpq *0x5e9b(%rip)        # 6ec8 <_GLOBAL_OFFSET_TABLE_+0x10>
    102d:	0f 1f 00             	nopl   (%rax)
    1030:	f3 0f 1e fa          	endbr64 
    1034:	68 00 00 00 00       	pushq  $0x0
    1039:	f2 e9 e1 ff ff ff    	bnd jmpq 1020 <.plt>
    103f:	90                   	nop
    1040:	f3 0f 1e fa          	endbr64 
    1044:	68 01 00 00 00       	pushq  $0x1
    1049:	f2 e9 d1 ff ff ff    	bnd jmpq 1020 <.plt>
    104f:	90                   	nop
    1050:	f3 0f 1e fa          	endbr64 
    1054:	68 02 00 00 00       	pushq  $0x2
    1059:	f2 e9 c1 ff ff ff    	bnd jmpq 1020 <.plt>
    105f:	90                   	nop
    1060:	f3 0f 1e fa          	endbr64 
    1064:	68 03 00 00 00       	pushq  $0x3
    1069:	f2 e9 b1 ff ff ff    	bnd jmpq 1020 <.plt>
    106f:	90                   	nop
    1070:	f3 0f 1e fa          	endbr64 
    1074:	68 04 00 00 00       	pushq  $0x4
    1079:	f2 e9 a1 ff ff ff    	bnd jmpq 1020 <.plt>
    107f:	90                   	nop
    1080:	f3 0f 1e fa          	endbr64 
    1084:	68 05 00 00 00       	pushq  $0x5
    1089:	f2 e9 91 ff ff ff    	bnd jmpq 1020 <.plt>
    108f:	90                   	nop
    1090:	f3 0f 1e fa          	endbr64 
    1094:	68 06 00 00 00       	pushq  $0x6
    1099:	f2 e9 81 ff ff ff    	bnd jmpq 1020 <.plt>
    109f:	90                   	nop
    10a0:	f3 0f 1e fa          	endbr64 
    10a4:	68 07 00 00 00       	pushq  $0x7
    10a9:	f2 e9 71 ff ff ff    	bnd jmpq 1020 <.plt>
    10af:	90                   	nop
    10b0:	f3 0f 1e fa          	endbr64 
    10b4:	68 08 00 00 00       	pushq  $0x8
    10b9:	f2 e9 61 ff ff ff    	bnd jmpq 1020 <.plt>
    10bf:	90                   	nop
    10c0:	f3 0f 1e fa          	endbr64 
    10c4:	68 09 00 00 00       	pushq  $0x9
    10c9:	f2 e9 51 ff ff ff    	bnd jmpq 1020 <.plt>
    10cf:	90                   	nop
    10d0:	f3 0f 1e fa          	endbr64 
    10d4:	68 0a 00 00 00       	pushq  $0xa
    10d9:	f2 e9 41 ff ff ff    	bnd jmpq 1020 <.plt>
    10df:	90                   	nop
    10e0:	f3 0f 1e fa          	endbr64 
    10e4:	68 0b 00 00 00       	pushq  $0xb
    10e9:	f2 e9 31 ff ff ff    	bnd jmpq 1020 <.plt>
    10ef:	90                   	nop
    10f0:	f3 0f 1e fa          	endbr64 
    10f4:	68 0c 00 00 00       	pushq  $0xc
    10f9:	f2 e9 21 ff ff ff    	bnd jmpq 1020 <.plt>
    10ff:	90                   	nop
    1100:	f3 0f 1e fa          	endbr64 
    1104:	68 0d 00 00 00       	pushq  $0xd
    1109:	f2 e9 11 ff ff ff    	bnd jmpq 1020 <.plt>
    110f:	90                   	nop
    1110:	f3 0f 1e fa          	endbr64 
    1114:	68 0e 00 00 00       	pushq  $0xe
    1119:	f2 e9 01 ff ff ff    	bnd jmpq 1020 <.plt>
    111f:	90                   	nop
    1120:	f3 0f 1e fa          	endbr64 
    1124:	68 0f 00 00 00       	pushq  $0xf
    1129:	f2 e9 f1 fe ff ff    	bnd jmpq 1020 <.plt>
    112f:	90                   	nop
    1130:	f3 0f 1e fa          	endbr64 
    1134:	68 10 00 00 00       	pushq  $0x10
    1139:	f2 e9 e1 fe ff ff    	bnd jmpq 1020 <.plt>
    113f:	90                   	nop
    1140:	f3 0f 1e fa          	endbr64 
    1144:	68 11 00 00 00       	pushq  $0x11
    1149:	f2 e9 d1 fe ff ff    	bnd jmpq 1020 <.plt>
    114f:	90                   	nop
    1150:	f3 0f 1e fa          	endbr64 
    1154:	68 12 00 00 00       	pushq  $0x12
    1159:	f2 e9 c1 fe ff ff    	bnd jmpq 1020 <.plt>
    115f:	90                   	nop
    1160:	f3 0f 1e fa          	endbr64 
    1164:	68 13 00 00 00       	pushq  $0x13
    1169:	f2 e9 b1 fe ff ff    	bnd jmpq 1020 <.plt>
    116f:	90                   	nop
    1170:	f3 0f 1e fa          	endbr64 
    1174:	68 14 00 00 00       	pushq  $0x14
    1179:	f2 e9 a1 fe ff ff    	bnd jmpq 1020 <.plt>
    117f:	90                   	nop
    1180:	f3 0f 1e fa          	endbr64 
    1184:	68 15 00 00 00       	pushq  $0x15
    1189:	f2 e9 91 fe ff ff    	bnd jmpq 1020 <.plt>
    118f:	90                   	nop
    1190:	f3 0f 1e fa          	endbr64 
    1194:	68 16 00 00 00       	pushq  $0x16
    1199:	f2 e9 81 fe ff ff    	bnd jmpq 1020 <.plt>
    119f:	90                   	nop
    11a0:	f3 0f 1e fa          	endbr64 
    11a4:	68 17 00 00 00       	pushq  $0x17
    11a9:	f2 e9 71 fe ff ff    	bnd jmpq 1020 <.plt>
    11af:	90                   	nop
    11b0:	f3 0f 1e fa          	endbr64 
    11b4:	68 18 00 00 00       	pushq  $0x18
    11b9:	f2 e9 61 fe ff ff    	bnd jmpq 1020 <.plt>
    11bf:	90                   	nop
    11c0:	f3 0f 1e fa          	endbr64 
    11c4:	68 19 00 00 00       	pushq  $0x19
    11c9:	f2 e9 51 fe ff ff    	bnd jmpq 1020 <.plt>
    11cf:	90                   	nop
    11d0:	f3 0f 1e fa          	endbr64 
    11d4:	68 1a 00 00 00       	pushq  $0x1a
    11d9:	f2 e9 41 fe ff ff    	bnd jmpq 1020 <.plt>
    11df:	90                   	nop
    11e0:	f3 0f 1e fa          	endbr64 
    11e4:	68 1b 00 00 00       	pushq  $0x1b
    11e9:	f2 e9 31 fe ff ff    	bnd jmpq 1020 <.plt>
    11ef:	90                   	nop
    11f0:	f3 0f 1e fa          	endbr64 
    11f4:	68 1c 00 00 00       	pushq  $0x1c
    11f9:	f2 e9 21 fe ff ff    	bnd jmpq 1020 <.plt>
    11ff:	90                   	nop
    1200:	f3 0f 1e fa          	endbr64 
    1204:	68 1d 00 00 00       	pushq  $0x1d
    1209:	f2 e9 11 fe ff ff    	bnd jmpq 1020 <.plt>
    120f:	90                   	nop
    1210:	f3 0f 1e fa          	endbr64 
    1214:	68 1e 00 00 00       	pushq  $0x1e
    1219:	f2 e9 01 fe ff ff    	bnd jmpq 1020 <.plt>
    121f:	90                   	nop
    1220:	f3 0f 1e fa          	endbr64 
    1224:	68 1f 00 00 00       	pushq  $0x1f
    1229:	f2 e9 f1 fd ff ff    	bnd jmpq 1020 <.plt>
    122f:	90                   	nop
    1230:	f3 0f 1e fa          	endbr64 
    1234:	68 20 00 00 00       	pushq  $0x20
    1239:	f2 e9 e1 fd ff ff    	bnd jmpq 1020 <.plt>
    123f:	90                   	nop

Disassembly of section .plt.got:

0000000000001240 <__cxa_finalize@plt>:
    1240:	f3 0f 1e fa          	endbr64 
    1244:	f2 ff 25 ad 5d 00 00 	bnd jmpq *0x5dad(%rip)        # 6ff8 <__cxa_finalize@GLIBC_2.2.5>
    124b:	0f 1f 44 00 00       	nopl   0x0(%rax,%rax,1)

Disassembly of section .plt.sec:

0000000000001250 <strcasecmp@plt>:
    1250:	f3 0f 1e fa          	endbr64 
    1254:	f2 ff 25 75 5c 00 00 	bnd jmpq *0x5c75(%rip)        # 6ed0 <strcasecmp@GLIBC_2.2.5>
    125b:	0f 1f 44 00 00       	nopl   0x0(%rax,%rax,1)

0000000000001260 <__errno_location@plt>:
    1260:	f3 0f 1e fa          	endbr64 
    1264:	f2 ff 25 6d 5c 00 00 	bnd jmpq *0x5c6d(%rip)        # 6ed8 <__errno_location@GLIBC_2.2.5>
    126b:	0f 1f 44 00 00       	nopl   0x0(%rax,%rax,1)

0000000000001270 <srandom@plt>:
    1270:	f3 0f 1e fa          	endbr64 
    1274:	f2 ff 25 65 5c 00 00 	bnd jmpq *0x5c65(%rip)        # 6ee0 <srandom@GLIBC_2.2.5>
    127b:	0f 1f 44 00 00       	nopl   0x0(%rax,%rax,1)

0000000000001280 <strncmp@plt>:
    1280:	f3 0f 1e fa          	endbr64 
    1284:	f2 ff 25 5d 5c 00 00 	bnd jmpq *0x5c5d(%rip)        # 6ee8 <strncmp@GLIBC_2.2.5>
    128b:	0f 1f 44 00 00       	nopl   0x0(%rax,%rax,1)

0000000000001290 <strcpy@plt>:
    1290:	f3 0f 1e fa          	endbr64 
    1294:	f2 ff 25 55 5c 00 00 	bnd jmpq *0x5c55(%rip)        # 6ef0 <strcpy@GLIBC_2.2.5>
    129b:	0f 1f 44 00 00       	nopl   0x0(%rax,%rax,1)

00000000000012a0 <puts@plt>:
    12a0:	f3 0f 1e fa          	endbr64 
    12a4:	f2 ff 25 4d 5c 00 00 	bnd jmpq *0x5c4d(%rip)        # 6ef8 <puts@GLIBC_2.2.5>
    12ab:	0f 1f 44 00 00       	nopl   0x0(%rax,%rax,1)

00000000000012b0 <write@plt>:
    12b0:	f3 0f 1e fa          	endbr64 
    12b4:	f2 ff 25 45 5c 00 00 	bnd jmpq *0x5c45(%rip)        # 6f00 <write@GLIBC_2.2.5>
    12bb:	0f 1f 44 00 00       	nopl   0x0(%rax,%rax,1)

00000000000012c0 <__stack_chk_fail@plt>:
    12c0:	f3 0f 1e fa          	endbr64 
    12c4:	f2 ff 25 3d 5c 00 00 	bnd jmpq *0x5c3d(%rip)        # 6f08 <__stack_chk_fail@GLIBC_2.4>
    12cb:	0f 1f 44 00 00       	nopl   0x0(%rax,%rax,1)

00000000000012d0 <mmap@plt>:
    12d0:	f3 0f 1e fa          	endbr64 
    12d4:	f2 ff 25 35 5c 00 00 	bnd jmpq *0x5c35(%rip)        # 6f10 <mmap@GLIBC_2.2.5>
    12db:	0f 1f 44 00 00       	nopl   0x0(%rax,%rax,1)

00000000000012e0 <memset@plt>:
    12e0:	f3 0f 1e fa          	endbr64 
    12e4:	f2 ff 25 2d 5c 00 00 	bnd jmpq *0x5c2d(%rip)        # 6f18 <memset@GLIBC_2.2.5>
    12eb:	0f 1f 44 00 00       	nopl   0x0(%rax,%rax,1)

00000000000012f0 <alarm@plt>:
    12f0:	f3 0f 1e fa          	endbr64 
    12f4:	f2 ff 25 25 5c 00 00 	bnd jmpq *0x5c25(%rip)        # 6f20 <alarm@GLIBC_2.2.5>
    12fb:	0f 1f 44 00 00       	nopl   0x0(%rax,%rax,1)

0000000000001300 <close@plt>:
    1300:	f3 0f 1e fa          	endbr64 
    1304:	f2 ff 25 1d 5c 00 00 	bnd jmpq *0x5c1d(%rip)        # 6f28 <close@GLIBC_2.2.5>
    130b:	0f 1f 44 00 00       	nopl   0x0(%rax,%rax,1)

0000000000001310 <read@plt>:
    1310:	f3 0f 1e fa          	endbr64 
    1314:	f2 ff 25 15 5c 00 00 	bnd jmpq *0x5c15(%rip)        # 6f30 <read@GLIBC_2.2.5>
    131b:	0f 1f 44 00 00       	nopl   0x0(%rax,%rax,1)

0000000000001320 <signal@plt>:
    1320:	f3 0f 1e fa          	endbr64 
    1324:	f2 ff 25 0d 5c 00 00 	bnd jmpq *0x5c0d(%rip)        # 6f38 <signal@GLIBC_2.2.5>
    132b:	0f 1f 44 00 00       	nopl   0x0(%rax,%rax,1)

0000000000001330 <gethostbyname@plt>:
    1330:	f3 0f 1e fa          	endbr64 
    1334:	f2 ff 25 05 5c 00 00 	bnd jmpq *0x5c05(%rip)        # 6f40 <gethostbyname@GLIBC_2.2.5>
    133b:	0f 1f 44 00 00       	nopl   0x0(%rax,%rax,1)

0000000000001340 <__memmove_chk@plt>:
    1340:	f3 0f 1e fa          	endbr64 
    1344:	f2 ff 25 fd 5b 00 00 	bnd jmpq *0x5bfd(%rip)        # 6f48 <__memmove_chk@GLIBC_2.3.4>
    134b:	0f 1f 44 00 00       	nopl   0x0(%rax,%rax,1)

0000000000001350 <strtol@plt>:
    1350:	f3 0f 1e fa          	endbr64 
    1354:	f2 ff 25 f5 5b 00 00 	bnd jmpq *0x5bf5(%rip)        # 6f50 <strtol@GLIBC_2.2.5>
    135b:	0f 1f 44 00 00       	nopl   0x0(%rax,%rax,1)

0000000000001360 <memcpy@plt>:
    1360:	f3 0f 1e fa          	endbr64 
    1364:	f2 ff 25 ed 5b 00 00 	bnd jmpq *0x5bed(%rip)        # 6f58 <memcpy@GLIBC_2.14>
    136b:	0f 1f 44 00 00       	nopl   0x0(%rax,%rax,1)

0000000000001370 <time@plt>:
    1370:	f3 0f 1e fa          	endbr64 
    1374:	f2 ff 25 e5 5b 00 00 	bnd jmpq *0x5be5(%rip)        # 6f60 <time@GLIBC_2.2.5>
    137b:	0f 1f 44 00 00       	nopl   0x0(%rax,%rax,1)

0000000000001380 <random@plt>:
    1380:	f3 0f 1e fa          	endbr64 
    1384:	f2 ff 25 dd 5b 00 00 	bnd jmpq *0x5bdd(%rip)        # 6f68 <random@GLIBC_2.2.5>
    138b:	0f 1f 44 00 00       	nopl   0x0(%rax,%rax,1)

0000000000001390 <__isoc99_sscanf@plt>:
    1390:	f3 0f 1e fa          	endbr64 
    1394:	f2 ff 25 d5 5b 00 00 	bnd jmpq *0x5bd5(%rip)        # 6f70 <__isoc99_sscanf@GLIBC_2.7>
    139b:	0f 1f 44 00 00       	nopl   0x0(%rax,%rax,1)

00000000000013a0 <munmap@plt>:
    13a0:	f3 0f 1e fa          	endbr64 
    13a4:	f2 ff 25 cd 5b 00 00 	bnd jmpq *0x5bcd(%rip)        # 6f78 <munmap@GLIBC_2.2.5>
    13ab:	0f 1f 44 00 00       	nopl   0x0(%rax,%rax,1)

00000000000013b0 <__printf_chk@plt>:
    13b0:	f3 0f 1e fa          	endbr64 
    13b4:	f2 ff 25 c5 5b 00 00 	bnd jmpq *0x5bc5(%rip)        # 6f80 <__printf_chk@GLIBC_2.3.4>
    13bb:	0f 1f 44 00 00       	nopl   0x0(%rax,%rax,1)

00000000000013c0 <fopen@plt>:
    13c0:	f3 0f 1e fa          	endbr64 
    13c4:	f2 ff 25 bd 5b 00 00 	bnd jmpq *0x5bbd(%rip)        # 6f88 <fopen@GLIBC_2.2.5>
    13cb:	0f 1f 44 00 00       	nopl   0x0(%rax,%rax,1)

00000000000013d0 <getopt@plt>:
    13d0:	f3 0f 1e fa          	endbr64 
    13d4:	f2 ff 25 b5 5b 00 00 	bnd jmpq *0x5bb5(%rip)        # 6f90 <getopt@GLIBC_2.2.5>
    13db:	0f 1f 44 00 00       	nopl   0x0(%rax,%rax,1)

00000000000013e0 <strtoul@plt>:
    13e0:	f3 0f 1e fa          	endbr64 
    13e4:	f2 ff 25 ad 5b 00 00 	bnd jmpq *0x5bad(%rip)        # 6f98 <strtoul@GLIBC_2.2.5>
    13eb:	0f 1f 44 00 00       	nopl   0x0(%rax,%rax,1)

00000000000013f0 <gethostname@plt>:
    13f0:	f3 0f 1e fa          	endbr64 
    13f4:	f2 ff 25 a5 5b 00 00 	bnd jmpq *0x5ba5(%rip)        # 6fa0 <gethostname@GLIBC_2.2.5>
    13fb:	0f 1f 44 00 00       	nopl   0x0(%rax,%rax,1)

0000000000001400 <exit@plt>:
    1400:	f3 0f 1e fa          	endbr64 
    1404:	f2 ff 25 9d 5b 00 00 	bnd jmpq *0x5b9d(%rip)        # 6fa8 <exit@GLIBC_2.2.5>
    140b:	0f 1f 44 00 00       	nopl   0x0(%rax,%rax,1)

0000000000001410 <connect@plt>:
    1410:	f3 0f 1e fa          	endbr64 
    1414:	f2 ff 25 95 5b 00 00 	bnd jmpq *0x5b95(%rip)        # 6fb0 <connect@GLIBC_2.2.5>
    141b:	0f 1f 44 00 00       	nopl   0x0(%rax,%rax,1)

0000000000001420 <__fprintf_chk@plt>:
    1420:	f3 0f 1e fa          	endbr64 
    1424:	f2 ff 25 8d 5b 00 00 	bnd jmpq *0x5b8d(%rip)        # 6fb8 <__fprintf_chk@GLIBC_2.3.4>
    142b:	0f 1f 44 00 00       	nopl   0x0(%rax,%rax,1)

0000000000001430 <getc@plt>:
    1430:	f3 0f 1e fa          	endbr64 
    1434:	f2 ff 25 85 5b 00 00 	bnd jmpq *0x5b85(%rip)        # 6fc0 <getc@GLIBC_2.2.5>
    143b:	0f 1f 44 00 00       	nopl   0x0(%rax,%rax,1)

0000000000001440 <__sprintf_chk@plt>:
    1440:	f3 0f 1e fa          	endbr64 
    1444:	f2 ff 25 7d 5b 00 00 	bnd jmpq *0x5b7d(%rip)        # 6fc8 <__sprintf_chk@GLIBC_2.3.4>
    144b:	0f 1f 44 00 00       	nopl   0x0(%rax,%rax,1)

0000000000001450 <socket@plt>:
    1450:	f3 0f 1e fa          	endbr64 
    1454:	f2 ff 25 75 5b 00 00 	bnd jmpq *0x5b75(%rip)        # 6fd0 <socket@GLIBC_2.2.5>
    145b:	0f 1f 44 00 00       	nopl   0x0(%rax,%rax,1)

Disassembly of section .text:

0000000000001460 <_start>:
    1460:	f3 0f 1e fa          	endbr64 
    1464:	31 ed                	xor    %ebp,%ebp
    1466:	49 89 d1             	mov    %rdx,%r9
    1469:	5e                   	pop    %rsi
    146a:	48 89 e2             	mov    %rsp,%rdx
    146d:	48 83 e4 f0          	and    $0xfffffffffffffff0,%rsp
    1471:	50                   	push   %rax
    1472:	54                   	push   %rsp
    1473:	4c 8d 05 26 20 00 00 	lea    0x2026(%rip),%r8        # 34a0 <__libc_csu_fini>
    147a:	48 8d 0d af 1f 00 00 	lea    0x1faf(%rip),%rcx        # 3430 <__libc_csu_init>
    1481:	48 8d 3d f8 02 00 00 	lea    0x2f8(%rip),%rdi        # 1780 <main>
    1488:	ff 15 52 5b 00 00    	callq  *0x5b52(%rip)        # 6fe0 <__libc_start_main@GLIBC_2.2.5>
    148e:	f4                   	hlt    
    148f:	90                   	nop

0000000000001490 <deregister_tm_clones>:
    1490:	48 8d 3d a1 5b 00 00 	lea    0x5ba1(%rip),%rdi        # 7038 <__TMC_END__>
    1497:	48 8d 05 9a 5b 00 00 	lea    0x5b9a(%rip),%rax        # 7038 <__TMC_END__>
    149e:	48 39 f8             	cmp    %rdi,%rax
    14a1:	74 15                	je     14b8 <deregister_tm_clones+0x28>
    14a3:	48 8b 05 2e 5b 00 00 	mov    0x5b2e(%rip),%rax        # 6fd8 <_ITM_deregisterTMCloneTable>
    14aa:	48 85 c0             	test   %rax,%rax
    14ad:	74 09                	je     14b8 <deregister_tm_clones+0x28>
    14af:	ff e0                	jmpq   *%rax
    14b1:	0f 1f 80 00 00 00 00 	nopl   0x0(%rax)
    14b8:	c3                   	retq   
    14b9:	0f 1f 80 00 00 00 00 	nopl   0x0(%rax)

00000000000014c0 <register_tm_clones>:
    14c0:	48 8d 3d 71 5b 00 00 	lea    0x5b71(%rip),%rdi        # 7038 <__TMC_END__>
    14c7:	48 8d 35 6a 5b 00 00 	lea    0x5b6a(%rip),%rsi        # 7038 <__TMC_END__>
    14ce:	48 29 fe             	sub    %rdi,%rsi
    14d1:	48 89 f0             	mov    %rsi,%rax
    14d4:	48 c1 ee 3f          	shr    $0x3f,%rsi
    14d8:	48 c1 f8 03          	sar    $0x3,%rax
    14dc:	48 01 c6             	add    %rax,%rsi
    14df:	48 d1 fe             	sar    %rsi
    14e2:	74 14                	je     14f8 <register_tm_clones+0x38>
    14e4:	48 8b 05 05 5b 00 00 	mov    0x5b05(%rip),%rax        # 6ff0 <_ITM_registerTMCloneTable>
    14eb:	48 85 c0             	test   %rax,%rax
    14ee:	74 08                	je     14f8 <register_tm_clones+0x38>
    14f0:	ff e0                	jmpq   *%rax
    14f2:	66 0f 1f 44 00 00    	nopw   0x0(%rax,%rax,1)
    14f8:	c3                   	retq   
    14f9:	0f 1f 80 00 00 00 00 	nopl   0x0(%rax)

0000000000001500 <__do_global_dtors_aux>:
    1500:	f3 0f 1e fa          	endbr64 
    1504:	80 3d 5d 5b 00 00 00 	cmpb   $0x0,0x5b5d(%rip)        # 7068 <completed.8061>
    150b:	75 2b                	jne    1538 <__do_global_dtors_aux+0x38>
    150d:	55                   	push   %rbp
    150e:	48 83 3d e2 5a 00 00 	cmpq   $0x0,0x5ae2(%rip)        # 6ff8 <__cxa_finalize@GLIBC_2.2.5>
    1515:	00 
    1516:	48 89 e5             	mov    %rsp,%rbp
    1519:	74 0c                	je     1527 <__do_global_dtors_aux+0x27>
    151b:	48 8b 3d e6 5a 00 00 	mov    0x5ae6(%rip),%rdi        # 7008 <__dso_handle>
    1522:	e8 19 fd ff ff       	callq  1240 <__cxa_finalize@plt>
    1527:	e8 64 ff ff ff       	callq  1490 <deregister_tm_clones>
    152c:	c6 05 35 5b 00 00 01 	movb   $0x1,0x5b35(%rip)        # 7068 <completed.8061>
    1533:	5d                   	pop    %rbp
    1534:	c3                   	retq   
    1535:	0f 1f 00             	nopl   (%rax)
    1538:	c3                   	retq   
    1539:	0f 1f 80 00 00 00 00 	nopl   0x0(%rax)

0000000000001540 <frame_dummy>:
    1540:	f3 0f 1e fa          	endbr64 
    1544:	e9 77 ff ff ff       	jmpq   14c0 <register_tm_clones>

0000000000001549 <usage>:
    1549:	50                   	push   %rax
    154a:	58                   	pop    %rax
    154b:	48 83 ec 08          	sub    $0x8,%rsp
    154f:	48 89 fa             	mov    %rdi,%rdx
    1552:	83 3d 73 5e 00 00 00 	cmpl   $0x0,0x5e73(%rip)        # 73cc <is_checker>
    1559:	74 50                	je     15ab <usage+0x62>
    155b:	48 8d 35 a6 2a 00 00 	lea    0x2aa6(%rip),%rsi        # 4008 <_IO_stdin_used+0x8>
    1562:	bf 01 00 00 00       	mov    $0x1,%edi
    1567:	b8 00 00 00 00       	mov    $0x0,%eax
    156c:	e8 3f fe ff ff       	callq  13b0 <__printf_chk@plt>
    1571:	48 8d 3d c8 2a 00 00 	lea    0x2ac8(%rip),%rdi        # 4040 <_IO_stdin_used+0x40>
    1578:	e8 23 fd ff ff       	callq  12a0 <puts@plt>
    157d:	48 8d 3d 04 2c 00 00 	lea    0x2c04(%rip),%rdi        # 4188 <_IO_stdin_used+0x188>
    1584:	e8 17 fd ff ff       	callq  12a0 <puts@plt>
    1589:	48 8d 3d d8 2a 00 00 	lea    0x2ad8(%rip),%rdi        # 4068 <_IO_stdin_used+0x68>
    1590:	e8 0b fd ff ff       	callq  12a0 <puts@plt>
    1595:	48 8d 3d 06 2c 00 00 	lea    0x2c06(%rip),%rdi        # 41a2 <_IO_stdin_used+0x1a2>
    159c:	e8 ff fc ff ff       	callq  12a0 <puts@plt>
    15a1:	bf 00 00 00 00       	mov    $0x0,%edi
    15a6:	e8 55 fe ff ff       	callq  1400 <exit@plt>
    15ab:	48 8d 35 0c 2c 00 00 	lea    0x2c0c(%rip),%rsi        # 41be <_IO_stdin_used+0x1be>
    15b2:	bf 01 00 00 00       	mov    $0x1,%edi
    15b7:	b8 00 00 00 00       	mov    $0x0,%eax
    15bc:	e8 ef fd ff ff       	callq  13b0 <__printf_chk@plt>
    15c1:	48 8d 3d c8 2a 00 00 	lea    0x2ac8(%rip),%rdi        # 4090 <_IO_stdin_used+0x90>
    15c8:	e8 d3 fc ff ff       	callq  12a0 <puts@plt>
    15cd:	48 8d 3d 08 2c 00 00 	lea    0x2c08(%rip),%rdi        # 41dc <_IO_stdin_used+0x1dc>
    15d4:	e8 c7 fc ff ff       	callq  12a0 <puts@plt>
    15d9:	eb c6                	jmp    15a1 <usage+0x58>

00000000000015db <initialize_target>:
    15db:	55                   	push   %rbp
    15dc:	53                   	push   %rbx
    15dd:	48 81 ec 00 10 00 00 	sub    $0x1000,%rsp
    15e4:	48 83 0c 24 00       	orq    $0x0,(%rsp)
    15e9:	48 81 ec 00 10 00 00 	sub    $0x1000,%rsp
    15f0:	48 83 0c 24 00       	orq    $0x0,(%rsp)
    15f5:	48 81 ec 18 01 00 00 	sub    $0x118,%rsp
    15fc:	89 f5                	mov    %esi,%ebp
    15fe:	64 48 8b 04 25 28 00 	mov    %fs:0x28,%rax
    1605:	00 00 
    1607:	48 89 84 24 08 21 00 	mov    %rax,0x2108(%rsp)
    160e:	00 
    160f:	31 c0                	xor    %eax,%eax
    1611:	89 3d a5 5d 00 00    	mov    %edi,0x5da5(%rip)        # 73bc <check_level>
    1617:	8b 3d f3 59 00 00    	mov    0x59f3(%rip),%edi        # 7010 <target_id>
    161d:	e8 e6 1d 00 00       	callq  3408 <gencookie>
    1622:	89 c7                	mov    %eax,%edi
    1624:	89 05 9e 5d 00 00    	mov    %eax,0x5d9e(%rip)        # 73c8 <cookie>
    162a:	e8 d9 1d 00 00       	callq  3408 <gencookie>
    162f:	89 05 8f 5d 00 00    	mov    %eax,0x5d8f(%rip)        # 73c4 <authkey>
    1635:	8b 05 d5 59 00 00    	mov    0x59d5(%rip),%eax        # 7010 <target_id>
    163b:	8d 78 01             	lea    0x1(%rax),%edi
    163e:	e8 2d fc ff ff       	callq  1270 <srandom@plt>
    1643:	e8 38 fd ff ff       	callq  1380 <random@plt>
    1648:	48 89 c7             	mov    %rax,%rdi
    164b:	e8 20 03 00 00       	callq  1970 <scramble>
    1650:	89 c3                	mov    %eax,%ebx
    1652:	85 ed                	test   %ebp,%ebp
    1654:	75 54                	jne    16aa <initialize_target+0xcf>
    1656:	b8 00 00 00 00       	mov    $0x0,%eax
    165b:	01 d8                	add    %ebx,%eax
    165d:	0f b7 c0             	movzwl %ax,%eax
    1660:	8d 04 c5 00 01 00 00 	lea    0x100(,%rax,8),%eax
    1667:	89 c0                	mov    %eax,%eax
    1669:	48 89 05 c0 59 00 00 	mov    %rax,0x59c0(%rip)        # 7030 <buf_offset>
    1670:	c6 05 71 69 00 00 63 	movb   $0x63,0x6971(%rip)        # 7fe8 <target_prefix>
    1677:	83 3d 3a 5d 00 00 00 	cmpl   $0x0,0x5d3a(%rip)        # 73b8 <notify>
    167e:	74 09                	je     1689 <initialize_target+0xae>
    1680:	83 3d 45 5d 00 00 00 	cmpl   $0x0,0x5d45(%rip)        # 73cc <is_checker>
    1687:	74 3a                	je     16c3 <initialize_target+0xe8>
    1689:	48 8b 84 24 08 21 00 	mov    0x2108(%rsp),%rax
    1690:	00 
    1691:	64 48 33 04 25 28 00 	xor    %fs:0x28,%rax
    1698:	00 00 
    169a:	0f 85 db 00 00 00    	jne    177b <initialize_target+0x1a0>
    16a0:	48 81 c4 18 21 00 00 	add    $0x2118,%rsp
    16a7:	5b                   	pop    %rbx
    16a8:	5d                   	pop    %rbp
    16a9:	c3                   	retq   
    16aa:	bf 00 00 00 00       	mov    $0x0,%edi
    16af:	e8 bc fc ff ff       	callq  1370 <time@plt>
    16b4:	48 89 c7             	mov    %rax,%rdi
    16b7:	e8 b4 fb ff ff       	callq  1270 <srandom@plt>
    16bc:	e8 bf fc ff ff       	callq  1380 <random@plt>
    16c1:	eb 98                	jmp    165b <initialize_target+0x80>
    16c3:	48 89 e7             	mov    %rsp,%rdi
    16c6:	be 00 01 00 00       	mov    $0x100,%esi
    16cb:	e8 20 fd ff ff       	callq  13f0 <gethostname@plt>
    16d0:	89 c5                	mov    %eax,%ebp
    16d2:	85 c0                	test   %eax,%eax
    16d4:	75 26                	jne    16fc <initialize_target+0x121>
    16d6:	89 c3                	mov    %eax,%ebx
    16d8:	48 63 c3             	movslq %ebx,%rax
    16db:	48 8d 15 9e 59 00 00 	lea    0x599e(%rip),%rdx        # 7080 <host_table>
    16e2:	48 8b 3c c2          	mov    (%rdx,%rax,8),%rdi
    16e6:	48 85 ff             	test   %rdi,%rdi
    16e9:	74 2c                	je     1717 <initialize_target+0x13c>
    16eb:	48 89 e6             	mov    %rsp,%rsi
    16ee:	e8 5d fb ff ff       	callq  1250 <strcasecmp@plt>
    16f3:	85 c0                	test   %eax,%eax
    16f5:	74 1b                	je     1712 <initialize_target+0x137>
    16f7:	83 c3 01             	add    $0x1,%ebx
    16fa:	eb dc                	jmp    16d8 <initialize_target+0xfd>
    16fc:	48 8d 3d b5 29 00 00 	lea    0x29b5(%rip),%rdi        # 40b8 <_IO_stdin_used+0xb8>
    1703:	e8 98 fb ff ff       	callq  12a0 <puts@plt>
    1708:	bf 08 00 00 00       	mov    $0x8,%edi
    170d:	e8 ee fc ff ff       	callq  1400 <exit@plt>
    1712:	bd 01 00 00 00       	mov    $0x1,%ebp
    1717:	85 ed                	test   %ebp,%ebp
    1719:	74 3d                	je     1758 <initialize_target+0x17d>
    171b:	48 8d bc 24 00 01 00 	lea    0x100(%rsp),%rdi
    1722:	00 
    1723:	e8 25 1a 00 00       	callq  314d <init_driver>
    1728:	85 c0                	test   %eax,%eax
    172a:	0f 89 59 ff ff ff    	jns    1689 <initialize_target+0xae>
    1730:	48 8d 94 24 00 01 00 	lea    0x100(%rsp),%rdx
    1737:	00 
    1738:	48 8d 35 f1 29 00 00 	lea    0x29f1(%rip),%rsi        # 4130 <_IO_stdin_used+0x130>
    173f:	bf 01 00 00 00       	mov    $0x1,%edi
    1744:	b8 00 00 00 00       	mov    $0x0,%eax
    1749:	e8 62 fc ff ff       	callq  13b0 <__printf_chk@plt>
    174e:	bf 08 00 00 00       	mov    $0x8,%edi
    1753:	e8 a8 fc ff ff       	callq  1400 <exit@plt>
    1758:	48 89 e2             	mov    %rsp,%rdx
    175b:	48 8d 35 8e 29 00 00 	lea    0x298e(%rip),%rsi        # 40f0 <_IO_stdin_used+0xf0>
    1762:	bf 01 00 00 00       	mov    $0x1,%edi
    1767:	b8 00 00 00 00       	mov    $0x0,%eax
    176c:	e8 3f fc ff ff       	callq  13b0 <__printf_chk@plt>
    1771:	bf 08 00 00 00       	mov    $0x8,%edi
    1776:	e8 85 fc ff ff       	callq  1400 <exit@plt>
    177b:	e8 40 fb ff ff       	callq  12c0 <__stack_chk_fail@plt>

0000000000001780 <main>:
    1780:	f3 0f 1e fa          	endbr64 
    1784:	41 56                	push   %r14
    1786:	41 55                	push   %r13
    1788:	41 54                	push   %r12
    178a:	55                   	push   %rbp
    178b:	53                   	push   %rbx
    178c:	89 fd                	mov    %edi,%ebp
    178e:	48 89 f3             	mov    %rsi,%rbx
    1791:	48 8d 35 58 0c 00 00 	lea    0xc58(%rip),%rsi        # 23f0 <seghandler>
    1798:	bf 0b 00 00 00       	mov    $0xb,%edi
    179d:	e8 7e fb ff ff       	callq  1320 <signal@plt>
    17a2:	48 8d 35 ed 0b 00 00 	lea    0xbed(%rip),%rsi        # 2396 <bushandler>
    17a9:	bf 07 00 00 00       	mov    $0x7,%edi
    17ae:	e8 6d fb ff ff       	callq  1320 <signal@plt>
    17b3:	48 8d 35 90 0c 00 00 	lea    0xc90(%rip),%rsi        # 244a <illegalhandler>
    17ba:	bf 04 00 00 00       	mov    $0x4,%edi
    17bf:	e8 5c fb ff ff       	callq  1320 <signal@plt>
    17c4:	83 3d 01 5c 00 00 00 	cmpl   $0x0,0x5c01(%rip)        # 73cc <is_checker>
    17cb:	75 26                	jne    17f3 <main+0x73>
    17cd:	4c 8d 25 29 2a 00 00 	lea    0x2a29(%rip),%r12        # 41fd <_IO_stdin_used+0x1fd>
    17d4:	48 8b 05 65 58 00 00 	mov    0x5865(%rip),%rax        # 7040 <stdin@@GLIBC_2.2.5>
    17db:	48 89 05 ce 5b 00 00 	mov    %rax,0x5bce(%rip)        # 73b0 <infile>
    17e2:	41 bd 00 00 00 00    	mov    $0x0,%r13d
    17e8:	41 be 00 00 00 00    	mov    $0x0,%r14d
    17ee:	e9 8d 00 00 00       	jmpq   1880 <main+0x100>
    17f3:	48 8d 35 aa 0c 00 00 	lea    0xcaa(%rip),%rsi        # 24a4 <sigalrmhandler>
    17fa:	bf 0e 00 00 00       	mov    $0xe,%edi
    17ff:	e8 1c fb ff ff       	callq  1320 <signal@plt>
    1804:	bf 05 00 00 00       	mov    $0x5,%edi
    1809:	e8 e2 fa ff ff       	callq  12f0 <alarm@plt>
    180e:	4c 8d 25 e0 29 00 00 	lea    0x29e0(%rip),%r12        # 41f5 <_IO_stdin_used+0x1f5>
    1815:	eb bd                	jmp    17d4 <main+0x54>
    1817:	48 8b 3b             	mov    (%rbx),%rdi
    181a:	e8 2a fd ff ff       	callq  1549 <usage>
    181f:	48 8d 35 d4 2b 00 00 	lea    0x2bd4(%rip),%rsi        # 43fa <_IO_stdin_used+0x3fa>
    1826:	48 8b 3d 1b 58 00 00 	mov    0x581b(%rip),%rdi        # 7048 <optarg@@GLIBC_2.2.5>
    182d:	e8 8e fb ff ff       	callq  13c0 <fopen@plt>
    1832:	48 89 05 77 5b 00 00 	mov    %rax,0x5b77(%rip)        # 73b0 <infile>
    1839:	48 85 c0             	test   %rax,%rax
    183c:	75 42                	jne    1880 <main+0x100>
    183e:	48 8b 0d 03 58 00 00 	mov    0x5803(%rip),%rcx        # 7048 <optarg@@GLIBC_2.2.5>
    1845:	48 8d 15 b6 29 00 00 	lea    0x29b6(%rip),%rdx        # 4202 <_IO_stdin_used+0x202>
    184c:	be 01 00 00 00       	mov    $0x1,%esi
    1851:	48 8b 3d 08 58 00 00 	mov    0x5808(%rip),%rdi        # 7060 <stderr@@GLIBC_2.2.5>
    1858:	e8 c3 fb ff ff       	callq  1420 <__fprintf_chk@plt>
    185d:	b8 01 00 00 00       	mov    $0x1,%eax
    1862:	e9 db 00 00 00       	jmpq   1942 <main+0x1c2>
    1867:	ba 10 00 00 00       	mov    $0x10,%edx
    186c:	be 00 00 00 00       	mov    $0x0,%esi
    1871:	48 8b 3d d0 57 00 00 	mov    0x57d0(%rip),%rdi        # 7048 <optarg@@GLIBC_2.2.5>
    1878:	e8 63 fb ff ff       	callq  13e0 <strtoul@plt>
    187d:	41 89 c6             	mov    %eax,%r14d
    1880:	4c 89 e2             	mov    %r12,%rdx
    1883:	48 89 de             	mov    %rbx,%rsi
    1886:	89 ef                	mov    %ebp,%edi
    1888:	e8 43 fb ff ff       	callq  13d0 <getopt@plt>
    188d:	3c ff                	cmp    $0xff,%al
    188f:	74 65                	je     18f6 <main+0x176>
    1891:	0f be c8             	movsbl %al,%ecx
    1894:	83 e8 61             	sub    $0x61,%eax
    1897:	3c 10                	cmp    $0x10,%al
    1899:	77 3b                	ja     18d6 <main+0x156>
    189b:	0f b6 c0             	movzbl %al,%eax
    189e:	48 8d 15 9b 29 00 00 	lea    0x299b(%rip),%rdx        # 4240 <_IO_stdin_used+0x240>
    18a5:	48 63 04 82          	movslq (%rdx,%rax,4),%rax
    18a9:	48 01 d0             	add    %rdx,%rax
    18ac:	3e ff e0             	notrack jmpq *%rax
    18af:	ba 0a 00 00 00       	mov    $0xa,%edx
    18b4:	be 00 00 00 00       	mov    $0x0,%esi
    18b9:	48 8b 3d 88 57 00 00 	mov    0x5788(%rip),%rdi        # 7048 <optarg@@GLIBC_2.2.5>
    18c0:	e8 8b fa ff ff       	callq  1350 <strtol@plt>
    18c5:	41 89 c5             	mov    %eax,%r13d
    18c8:	eb b6                	jmp    1880 <main+0x100>
    18ca:	c7 05 e4 5a 00 00 00 	movl   $0x0,0x5ae4(%rip)        # 73b8 <notify>
    18d1:	00 00 00 
    18d4:	eb aa                	jmp    1880 <main+0x100>
    18d6:	89 ca                	mov    %ecx,%edx
    18d8:	48 8d 35 40 29 00 00 	lea    0x2940(%rip),%rsi        # 421f <_IO_stdin_used+0x21f>
    18df:	bf 01 00 00 00       	mov    $0x1,%edi
    18e4:	b8 00 00 00 00       	mov    $0x0,%eax
    18e9:	e8 c2 fa ff ff       	callq  13b0 <__printf_chk@plt>
    18ee:	48 8b 3b             	mov    (%rbx),%rdi
    18f1:	e8 53 fc ff ff       	callq  1549 <usage>
    18f6:	be 00 00 00 00       	mov    $0x0,%esi
    18fb:	44 89 ef             	mov    %r13d,%edi
    18fe:	e8 d8 fc ff ff       	callq  15db <initialize_target>
    1903:	83 3d c2 5a 00 00 00 	cmpl   $0x0,0x5ac2(%rip)        # 73cc <is_checker>
    190a:	74 09                	je     1915 <main+0x195>
    190c:	44 39 35 b1 5a 00 00 	cmp    %r14d,0x5ab1(%rip)        # 73c4 <authkey>
    1913:	75 36                	jne    194b <main+0x1cb>
    1915:	8b 15 ad 5a 00 00    	mov    0x5aad(%rip),%edx        # 73c8 <cookie>
    191b:	48 8d 35 10 29 00 00 	lea    0x2910(%rip),%rsi        # 4232 <_IO_stdin_used+0x232>
    1922:	bf 01 00 00 00       	mov    $0x1,%edi
    1927:	b8 00 00 00 00       	mov    $0x0,%eax
    192c:	e8 7f fa ff ff       	callq  13b0 <__printf_chk@plt>
    1931:	48 8b 3d f8 56 00 00 	mov    0x56f8(%rip),%rdi        # 7030 <buf_offset>
    1938:	e8 b9 0c 00 00       	callq  25f6 <stable_launch>
    193d:	b8 00 00 00 00       	mov    $0x0,%eax
    1942:	5b                   	pop    %rbx
    1943:	5d                   	pop    %rbp
    1944:	41 5c                	pop    %r12
    1946:	41 5d                	pop    %r13
    1948:	41 5e                	pop    %r14
    194a:	c3                   	retq   
    194b:	44 89 f2             	mov    %r14d,%edx
    194e:	48 8d 35 03 28 00 00 	lea    0x2803(%rip),%rsi        # 4158 <_IO_stdin_used+0x158>
    1955:	bf 01 00 00 00       	mov    $0x1,%edi
    195a:	b8 00 00 00 00       	mov    $0x0,%eax
    195f:	e8 4c fa ff ff       	callq  13b0 <__printf_chk@plt>
    1964:	b8 00 00 00 00       	mov    $0x0,%eax
    1969:	e8 9b 07 00 00       	callq  2109 <check_fail>
    196e:	eb a5                	jmp    1915 <main+0x195>

0000000000001970 <scramble>:
    1970:	f3 0f 1e fa          	endbr64 
    1974:	48 83 ec 38          	sub    $0x38,%rsp
    1978:	64 48 8b 04 25 28 00 	mov    %fs:0x28,%rax
    197f:	00 00 
    1981:	48 89 44 24 28       	mov    %rax,0x28(%rsp)
    1986:	31 c0                	xor    %eax,%eax
    1988:	83 f8 09             	cmp    $0x9,%eax
    198b:	77 12                	ja     199f <scramble+0x2f>
    198d:	69 d0 94 00 00 00    	imul   $0x94,%eax,%edx
    1993:	01 fa                	add    %edi,%edx
    1995:	89 c1                	mov    %eax,%ecx
    1997:	89 14 8c             	mov    %edx,(%rsp,%rcx,4)
    199a:	83 c0 01             	add    $0x1,%eax
    199d:	eb e9                	jmp    1988 <scramble+0x18>
    199f:	8b 04 24             	mov    (%rsp),%eax
    19a2:	69 c0 4e 0d 00 00    	imul   $0xd4e,%eax,%eax
    19a8:	89 04 24             	mov    %eax,(%rsp)
    19ab:	8b 44 24 14          	mov    0x14(%rsp),%eax
    19af:	69 c0 ad 3f 00 00    	imul   $0x3fad,%eax,%eax
    19b5:	89 44 24 14          	mov    %eax,0x14(%rsp)
    19b9:	8b 44 24 04          	mov    0x4(%rsp),%eax
    19bd:	69 c0 2c 34 00 00    	imul   $0x342c,%eax,%eax
    19c3:	89 44 24 04          	mov    %eax,0x4(%rsp)
    19c7:	8b 44 24 0c          	mov    0xc(%rsp),%eax
    19cb:	69 c0 48 aa 00 00    	imul   $0xaa48,%eax,%eax
    19d1:	89 44 24 0c          	mov    %eax,0xc(%rsp)
    19d5:	8b 44 24 24          	mov    0x24(%rsp),%eax
    19d9:	69 c0 60 e6 00 00    	imul   $0xe660,%eax,%eax
    19df:	89 44 24 24          	mov    %eax,0x24(%rsp)
    19e3:	8b 44 24 10          	mov    0x10(%rsp),%eax
    19e7:	69 c0 31 c4 00 00    	imul   $0xc431,%eax,%eax
    19ed:	89 44 24 10          	mov    %eax,0x10(%rsp)
    19f1:	8b 44 24 1c          	mov    0x1c(%rsp),%eax
    19f5:	69 c0 45 d1 00 00    	imul   $0xd145,%eax,%eax
    19fb:	89 44 24 1c          	mov    %eax,0x1c(%rsp)
    19ff:	8b 44 24 0c          	mov    0xc(%rsp),%eax
    1a03:	69 c0 07 d0 00 00    	imul   $0xd007,%eax,%eax
    1a09:	89 44 24 0c          	mov    %eax,0xc(%rsp)
    1a0d:	8b 44 24 0c          	mov    0xc(%rsp),%eax
    1a11:	69 c0 bb 52 00 00    	imul   $0x52bb,%eax,%eax
    1a17:	89 44 24 0c          	mov    %eax,0xc(%rsp)
    1a1b:	8b 44 24 18          	mov    0x18(%rsp),%eax
    1a1f:	69 c0 b9 92 00 00    	imul   $0x92b9,%eax,%eax
    1a25:	89 44 24 18          	mov    %eax,0x18(%rsp)
    1a29:	8b 44 24 18          	mov    0x18(%rsp),%eax
    1a2d:	69 c0 31 90 00 00    	imul   $0x9031,%eax,%eax
    1a33:	89 44 24 18          	mov    %eax,0x18(%rsp)
    1a37:	8b 44 24 24          	mov    0x24(%rsp),%eax
    1a3b:	69 c0 59 21 00 00    	imul   $0x2159,%eax,%eax
    1a41:	89 44 24 24          	mov    %eax,0x24(%rsp)
    1a45:	8b 44 24 1c          	mov    0x1c(%rsp),%eax
    1a49:	69 c0 51 07 00 00    	imul   $0x751,%eax,%eax
    1a4f:	89 44 24 1c          	mov    %eax,0x1c(%rsp)
    1a53:	8b 44 24 04          	mov    0x4(%rsp),%eax
    1a57:	69 c0 c0 ec 00 00    	imul   $0xecc0,%eax,%eax
    1a5d:	89 44 24 04          	mov    %eax,0x4(%rsp)
    1a61:	8b 44 24 04          	mov    0x4(%rsp),%eax
    1a65:	69 c0 35 50 00 00    	imul   $0x5035,%eax,%eax
    1a6b:	89 44 24 04          	mov    %eax,0x4(%rsp)
    1a6f:	8b 44 24 24          	mov    0x24(%rsp),%eax
    1a73:	69 c0 9c 87 00 00    	imul   $0x879c,%eax,%eax
    1a79:	89 44 24 24          	mov    %eax,0x24(%rsp)
    1a7d:	8b 44 24 0c          	mov    0xc(%rsp),%eax
    1a81:	69 c0 82 f4 00 00    	imul   $0xf482,%eax,%eax
    1a87:	89 44 24 0c          	mov    %eax,0xc(%rsp)
    1a8b:	8b 44 24 18          	mov    0x18(%rsp),%eax
    1a8f:	69 c0 fa 42 00 00    	imul   $0x42fa,%eax,%eax
    1a95:	89 44 24 18          	mov    %eax,0x18(%rsp)
    1a99:	8b 44 24 08          	mov    0x8(%rsp),%eax
    1a9d:	69 c0 5c 52 00 00    	imul   $0x525c,%eax,%eax
    1aa3:	89 44 24 08          	mov    %eax,0x8(%rsp)
    1aa7:	8b 44 24 18          	mov    0x18(%rsp),%eax
    1aab:	69 c0 e3 88 00 00    	imul   $0x88e3,%eax,%eax
    1ab1:	89 44 24 18          	mov    %eax,0x18(%rsp)
    1ab5:	8b 44 24 1c          	mov    0x1c(%rsp),%eax
    1ab9:	69 c0 10 50 00 00    	imul   $0x5010,%eax,%eax
    1abf:	89 44 24 1c          	mov    %eax,0x1c(%rsp)
    1ac3:	8b 44 24 0c          	mov    0xc(%rsp),%eax
    1ac7:	69 c0 54 85 00 00    	imul   $0x8554,%eax,%eax
    1acd:	89 44 24 0c          	mov    %eax,0xc(%rsp)
    1ad1:	8b 44 24 14          	mov    0x14(%rsp),%eax
    1ad5:	69 c0 cc 89 00 00    	imul   $0x89cc,%eax,%eax
    1adb:	89 44 24 14          	mov    %eax,0x14(%rsp)
    1adf:	8b 44 24 24          	mov    0x24(%rsp),%eax
    1ae3:	69 c0 72 b5 00 00    	imul   $0xb572,%eax,%eax
    1ae9:	89 44 24 24          	mov    %eax,0x24(%rsp)
    1aed:	8b 44 24 18          	mov    0x18(%rsp),%eax
    1af1:	69 c0 3e fd 00 00    	imul   $0xfd3e,%eax,%eax
    1af7:	89 44 24 18          	mov    %eax,0x18(%rsp)
    1afb:	8b 44 24 14          	mov    0x14(%rsp),%eax
    1aff:	69 c0 f1 a1 00 00    	imul   $0xa1f1,%eax,%eax
    1b05:	89 44 24 14          	mov    %eax,0x14(%rsp)
    1b09:	8b 44 24 08          	mov    0x8(%rsp),%eax
    1b0d:	69 c0 76 d1 00 00    	imul   $0xd176,%eax,%eax
    1b13:	89 44 24 08          	mov    %eax,0x8(%rsp)
    1b17:	8b 44 24 14          	mov    0x14(%rsp),%eax
    1b1b:	69 c0 68 d3 00 00    	imul   $0xd368,%eax,%eax
    1b21:	89 44 24 14          	mov    %eax,0x14(%rsp)
    1b25:	8b 44 24 08          	mov    0x8(%rsp),%eax
    1b29:	69 c0 20 3b 00 00    	imul   $0x3b20,%eax,%eax
    1b2f:	89 44 24 08          	mov    %eax,0x8(%rsp)
    1b33:	8b 44 24 24          	mov    0x24(%rsp),%eax
    1b37:	69 c0 cf 5f 00 00    	imul   $0x5fcf,%eax,%eax
    1b3d:	89 44 24 24          	mov    %eax,0x24(%rsp)
    1b41:	8b 44 24 04          	mov    0x4(%rsp),%eax
    1b45:	69 c0 61 2b 00 00    	imul   $0x2b61,%eax,%eax
    1b4b:	89 44 24 04          	mov    %eax,0x4(%rsp)
    1b4f:	8b 44 24 1c          	mov    0x1c(%rsp),%eax
    1b53:	69 c0 d9 e8 00 00    	imul   $0xe8d9,%eax,%eax
    1b59:	89 44 24 1c          	mov    %eax,0x1c(%rsp)
    1b5d:	8b 44 24 14          	mov    0x14(%rsp),%eax
    1b61:	69 c0 b4 ae 00 00    	imul   $0xaeb4,%eax,%eax
    1b67:	89 44 24 14          	mov    %eax,0x14(%rsp)
    1b6b:	8b 04 24             	mov    (%rsp),%eax
    1b6e:	69 c0 92 48 00 00    	imul   $0x4892,%eax,%eax
    1b74:	89 04 24             	mov    %eax,(%rsp)
    1b77:	8b 44 24 1c          	mov    0x1c(%rsp),%eax
    1b7b:	69 c0 16 19 00 00    	imul   $0x1916,%eax,%eax
    1b81:	89 44 24 1c          	mov    %eax,0x1c(%rsp)
    1b85:	8b 44 24 10          	mov    0x10(%rsp),%eax
    1b89:	69 c0 cc 39 00 00    	imul   $0x39cc,%eax,%eax
    1b8f:	89 44 24 10          	mov    %eax,0x10(%rsp)
    1b93:	8b 44 24 20          	mov    0x20(%rsp),%eax
    1b97:	69 c0 8a 1e 00 00    	imul   $0x1e8a,%eax,%eax
    1b9d:	89 44 24 20          	mov    %eax,0x20(%rsp)
    1ba1:	8b 44 24 08          	mov    0x8(%rsp),%eax
    1ba5:	69 c0 7b 8a 00 00    	imul   $0x8a7b,%eax,%eax
    1bab:	89 44 24 08          	mov    %eax,0x8(%rsp)
    1baf:	8b 44 24 1c          	mov    0x1c(%rsp),%eax
    1bb3:	69 c0 7b 14 00 00    	imul   $0x147b,%eax,%eax
    1bb9:	89 44 24 1c          	mov    %eax,0x1c(%rsp)
    1bbd:	8b 44 24 0c          	mov    0xc(%rsp),%eax
    1bc1:	69 c0 dd 84 00 00    	imul   $0x84dd,%eax,%eax
    1bc7:	89 44 24 0c          	mov    %eax,0xc(%rsp)
    1bcb:	8b 44 24 04          	mov    0x4(%rsp),%eax
    1bcf:	69 c0 19 88 00 00    	imul   $0x8819,%eax,%eax
    1bd5:	89 44 24 04          	mov    %eax,0x4(%rsp)
    1bd9:	8b 44 24 20          	mov    0x20(%rsp),%eax
    1bdd:	69 c0 28 9f 00 00    	imul   $0x9f28,%eax,%eax
    1be3:	89 44 24 20          	mov    %eax,0x20(%rsp)
    1be7:	8b 44 24 18          	mov    0x18(%rsp),%eax
    1beb:	69 c0 19 ea 00 00    	imul   $0xea19,%eax,%eax
    1bf1:	89 44 24 18          	mov    %eax,0x18(%rsp)
    1bf5:	8b 44 24 14          	mov    0x14(%rsp),%eax
    1bf9:	69 c0 57 32 00 00    	imul   $0x3257,%eax,%eax
    1bff:	89 44 24 14          	mov    %eax,0x14(%rsp)
    1c03:	8b 44 24 10          	mov    0x10(%rsp),%eax
    1c07:	69 c0 b8 32 00 00    	imul   $0x32b8,%eax,%eax
    1c0d:	89 44 24 10          	mov    %eax,0x10(%rsp)
    1c11:	8b 44 24 0c          	mov    0xc(%rsp),%eax
    1c15:	69 c0 8f b0 00 00    	imul   $0xb08f,%eax,%eax
    1c1b:	89 44 24 0c          	mov    %eax,0xc(%rsp)
    1c1f:	8b 44 24 18          	mov    0x18(%rsp),%eax
    1c23:	69 c0 91 79 00 00    	imul   $0x7991,%eax,%eax
    1c29:	89 44 24 18          	mov    %eax,0x18(%rsp)
    1c2d:	8b 44 24 24          	mov    0x24(%rsp),%eax
    1c31:	69 c0 fd 7d 00 00    	imul   $0x7dfd,%eax,%eax
    1c37:	89 44 24 24          	mov    %eax,0x24(%rsp)
    1c3b:	8b 44 24 1c          	mov    0x1c(%rsp),%eax
    1c3f:	69 c0 3b c5 00 00    	imul   $0xc53b,%eax,%eax
    1c45:	89 44 24 1c          	mov    %eax,0x1c(%rsp)
    1c49:	8b 44 24 0c          	mov    0xc(%rsp),%eax
    1c4d:	69 c0 55 29 00 00    	imul   $0x2955,%eax,%eax
    1c53:	89 44 24 0c          	mov    %eax,0xc(%rsp)
    1c57:	8b 44 24 24          	mov    0x24(%rsp),%eax
    1c5b:	69 c0 04 98 00 00    	imul   $0x9804,%eax,%eax
    1c61:	89 44 24 24          	mov    %eax,0x24(%rsp)
    1c65:	8b 44 24 04          	mov    0x4(%rsp),%eax
    1c69:	69 c0 77 47 00 00    	imul   $0x4777,%eax,%eax
    1c6f:	89 44 24 04          	mov    %eax,0x4(%rsp)
    1c73:	8b 44 24 18          	mov    0x18(%rsp),%eax
    1c77:	69 c0 41 22 00 00    	imul   $0x2241,%eax,%eax
    1c7d:	89 44 24 18          	mov    %eax,0x18(%rsp)
    1c81:	8b 44 24 10          	mov    0x10(%rsp),%eax
    1c85:	69 c0 e5 5e 00 00    	imul   $0x5ee5,%eax,%eax
    1c8b:	89 44 24 10          	mov    %eax,0x10(%rsp)
    1c8f:	8b 44 24 24          	mov    0x24(%rsp),%eax
    1c93:	69 c0 e0 11 00 00    	imul   $0x11e0,%eax,%eax
    1c99:	89 44 24 24          	mov    %eax,0x24(%rsp)
    1c9d:	8b 44 24 1c          	mov    0x1c(%rsp),%eax
    1ca1:	69 c0 75 48 00 00    	imul   $0x4875,%eax,%eax
    1ca7:	89 44 24 1c          	mov    %eax,0x1c(%rsp)
    1cab:	8b 44 24 1c          	mov    0x1c(%rsp),%eax
    1caf:	69 c0 92 0a 00 00    	imul   $0xa92,%eax,%eax
    1cb5:	89 44 24 1c          	mov    %eax,0x1c(%rsp)
    1cb9:	8b 44 24 14          	mov    0x14(%rsp),%eax
    1cbd:	69 c0 89 f3 00 00    	imul   $0xf389,%eax,%eax
    1cc3:	89 44 24 14          	mov    %eax,0x14(%rsp)
    1cc7:	8b 44 24 0c          	mov    0xc(%rsp),%eax
    1ccb:	69 c0 2d 5a 00 00    	imul   $0x5a2d,%eax,%eax
    1cd1:	89 44 24 0c          	mov    %eax,0xc(%rsp)
    1cd5:	8b 44 24 0c          	mov    0xc(%rsp),%eax
    1cd9:	69 c0 e5 19 00 00    	imul   $0x19e5,%eax,%eax
    1cdf:	89 44 24 0c          	mov    %eax,0xc(%rsp)
    1ce3:	8b 04 24             	mov    (%rsp),%eax
    1ce6:	69 c0 07 b8 00 00    	imul   $0xb807,%eax,%eax
    1cec:	89 04 24             	mov    %eax,(%rsp)
    1cef:	8b 44 24 0c          	mov    0xc(%rsp),%eax
    1cf3:	69 c0 ff ea 00 00    	imul   $0xeaff,%eax,%eax
    1cf9:	89 44 24 0c          	mov    %eax,0xc(%rsp)
    1cfd:	8b 04 24             	mov    (%rsp),%eax
    1d00:	69 c0 dc 63 00 00    	imul   $0x63dc,%eax,%eax
    1d06:	89 04 24             	mov    %eax,(%rsp)
    1d09:	8b 44 24 04          	mov    0x4(%rsp),%eax
    1d0d:	69 c0 de 59 00 00    	imul   $0x59de,%eax,%eax
    1d13:	89 44 24 04          	mov    %eax,0x4(%rsp)
    1d17:	8b 44 24 20          	mov    0x20(%rsp),%eax
    1d1b:	69 c0 8b 2f 00 00    	imul   $0x2f8b,%eax,%eax
    1d21:	89 44 24 20          	mov    %eax,0x20(%rsp)
    1d25:	8b 44 24 0c          	mov    0xc(%rsp),%eax
    1d29:	69 c0 69 07 00 00    	imul   $0x769,%eax,%eax
    1d2f:	89 44 24 0c          	mov    %eax,0xc(%rsp)
    1d33:	8b 44 24 08          	mov    0x8(%rsp),%eax
    1d37:	69 c0 55 e6 00 00    	imul   $0xe655,%eax,%eax
    1d3d:	89 44 24 08          	mov    %eax,0x8(%rsp)
    1d41:	8b 44 24 1c          	mov    0x1c(%rsp),%eax
    1d45:	69 c0 1e 7e 00 00    	imul   $0x7e1e,%eax,%eax
    1d4b:	89 44 24 1c          	mov    %eax,0x1c(%rsp)
    1d4f:	8b 44 24 08          	mov    0x8(%rsp),%eax
    1d53:	69 c0 d3 20 00 00    	imul   $0x20d3,%eax,%eax
    1d59:	89 44 24 08          	mov    %eax,0x8(%rsp)
    1d5d:	8b 44 24 14          	mov    0x14(%rsp),%eax
    1d61:	69 c0 53 3f 00 00    	imul   $0x3f53,%eax,%eax
    1d67:	89 44 24 14          	mov    %eax,0x14(%rsp)
    1d6b:	8b 44 24 04          	mov    0x4(%rsp),%eax
    1d6f:	69 c0 c7 c0 00 00    	imul   $0xc0c7,%eax,%eax
    1d75:	89 44 24 04          	mov    %eax,0x4(%rsp)
    1d79:	8b 44 24 04          	mov    0x4(%rsp),%eax
    1d7d:	69 c0 ac cc 00 00    	imul   $0xccac,%eax,%eax
    1d83:	89 44 24 04          	mov    %eax,0x4(%rsp)
    1d87:	8b 44 24 08          	mov    0x8(%rsp),%eax
    1d8b:	69 c0 66 6f 00 00    	imul   $0x6f66,%eax,%eax
    1d91:	89 44 24 08          	mov    %eax,0x8(%rsp)
    1d95:	8b 44 24 10          	mov    0x10(%rsp),%eax
    1d99:	69 c0 04 c0 00 00    	imul   $0xc004,%eax,%eax
    1d9f:	89 44 24 10          	mov    %eax,0x10(%rsp)
    1da3:	8b 44 24 24          	mov    0x24(%rsp),%eax
    1da7:	69 c0 17 e6 00 00    	imul   $0xe617,%eax,%eax
    1dad:	89 44 24 24          	mov    %eax,0x24(%rsp)
    1db1:	8b 44 24 08          	mov    0x8(%rsp),%eax
    1db5:	69 c0 79 56 00 00    	imul   $0x5679,%eax,%eax
    1dbb:	89 44 24 08          	mov    %eax,0x8(%rsp)
    1dbf:	8b 44 24 18          	mov    0x18(%rsp),%eax
    1dc3:	69 c0 5d a4 00 00    	imul   $0xa45d,%eax,%eax
    1dc9:	89 44 24 18          	mov    %eax,0x18(%rsp)
    1dcd:	8b 44 24 24          	mov    0x24(%rsp),%eax
    1dd1:	69 c0 b7 cf 00 00    	imul   $0xcfb7,%eax,%eax
    1dd7:	89 44 24 24          	mov    %eax,0x24(%rsp)
    1ddb:	8b 44 24 08          	mov    0x8(%rsp),%eax
    1ddf:	69 c0 74 aa 00 00    	imul   $0xaa74,%eax,%eax
    1de5:	89 44 24 08          	mov    %eax,0x8(%rsp)
    1de9:	8b 44 24 14          	mov    0x14(%rsp),%eax
    1ded:	69 c0 51 31 00 00    	imul   $0x3151,%eax,%eax
    1df3:	89 44 24 14          	mov    %eax,0x14(%rsp)
    1df7:	8b 44 24 18          	mov    0x18(%rsp),%eax
    1dfb:	69 c0 ca ac 00 00    	imul   $0xacca,%eax,%eax
    1e01:	89 44 24 18          	mov    %eax,0x18(%rsp)
    1e05:	8b 44 24 24          	mov    0x24(%rsp),%eax
    1e09:	69 c0 8f a1 00 00    	imul   $0xa18f,%eax,%eax
    1e0f:	89 44 24 24          	mov    %eax,0x24(%rsp)
    1e13:	8b 44 24 1c          	mov    0x1c(%rsp),%eax
    1e17:	69 c0 9a 87 00 00    	imul   $0x879a,%eax,%eax
    1e1d:	89 44 24 1c          	mov    %eax,0x1c(%rsp)
    1e21:	8b 44 24 24          	mov    0x24(%rsp),%eax
    1e25:	69 c0 b6 9b 00 00    	imul   $0x9bb6,%eax,%eax
    1e2b:	89 44 24 24          	mov    %eax,0x24(%rsp)
    1e2f:	8b 44 24 08          	mov    0x8(%rsp),%eax
    1e33:	69 c0 b1 fc 00 00    	imul   $0xfcb1,%eax,%eax
    1e39:	89 44 24 08          	mov    %eax,0x8(%rsp)
    1e3d:	8b 44 24 08          	mov    0x8(%rsp),%eax
    1e41:	69 c0 20 db 00 00    	imul   $0xdb20,%eax,%eax
    1e47:	89 44 24 08          	mov    %eax,0x8(%rsp)
    1e4b:	b8 00 00 00 00       	mov    $0x0,%eax
    1e50:	ba 00 00 00 00       	mov    $0x0,%edx
    1e55:	83 f8 09             	cmp    $0x9,%eax
    1e58:	77 0c                	ja     1e66 <scramble+0x4f6>
    1e5a:	89 c1                	mov    %eax,%ecx
    1e5c:	8b 0c 8c             	mov    (%rsp,%rcx,4),%ecx
    1e5f:	01 ca                	add    %ecx,%edx
    1e61:	83 c0 01             	add    $0x1,%eax
    1e64:	eb ef                	jmp    1e55 <scramble+0x4e5>
    1e66:	48 8b 44 24 28       	mov    0x28(%rsp),%rax
    1e6b:	64 48 33 04 25 28 00 	xor    %fs:0x28,%rax
    1e72:	00 00 
    1e74:	75 07                	jne    1e7d <scramble+0x50d>
    1e76:	89 d0                	mov    %edx,%eax
    1e78:	48 83 c4 38          	add    $0x38,%rsp
    1e7c:	c3                   	retq   
    1e7d:	e8 3e f4 ff ff       	callq  12c0 <__stack_chk_fail@plt>

0000000000001e82 <getbuf>:
    1e82:	f3 0f 1e fa          	endbr64 
    1e86:	48 83 ec 28          	sub    $0x28,%rsp
    1e8a:	48 89 e7             	mov    %rsp,%rdi
    1e8d:	e8 b5 02 00 00       	callq  2147 <Gets>
    1e92:	b8 01 00 00 00       	mov    $0x1,%eax
    1e97:	48 83 c4 28          	add    $0x28,%rsp
    1e9b:	c3                   	retq   

0000000000001e9c <touch1>:
    1e9c:	f3 0f 1e fa          	endbr64 
    1ea0:	50                   	push   %rax
    1ea1:	58                   	pop    %rax
    1ea2:	48 83 ec 08          	sub    $0x8,%rsp
    1ea6:	c7 05 10 55 00 00 01 	movl   $0x1,0x5510(%rip)        # 73c0 <vlevel>
    1ead:	00 00 00 
    1eb0:	48 8d 3d e5 23 00 00 	lea    0x23e5(%rip),%rdi        # 429c <_IO_stdin_used+0x29c>
    1eb7:	e8 e4 f3 ff ff       	callq  12a0 <puts@plt>
    1ebc:	bf 01 00 00 00       	mov    $0x1,%edi
    1ec1:	e8 d0 03 00 00       	callq  2296 <validate>
    1ec6:	bf 00 00 00 00       	mov    $0x0,%edi
    1ecb:	e8 30 f5 ff ff       	callq  1400 <exit@plt>

0000000000001ed0 <touch2>:
    1ed0:	f3 0f 1e fa          	endbr64 
    1ed4:	50                   	push   %rax
    1ed5:	58                   	pop    %rax
    1ed6:	48 83 ec 08          	sub    $0x8,%rsp
    1eda:	89 fa                	mov    %edi,%edx
    1edc:	c7 05 da 54 00 00 02 	movl   $0x2,0x54da(%rip)        # 73c0 <vlevel>
    1ee3:	00 00 00 
    1ee6:	39 3d dc 54 00 00    	cmp    %edi,0x54dc(%rip)        # 73c8 <cookie>
    1eec:	74 2a                	je     1f18 <touch2+0x48>
    1eee:	48 8d 35 f3 23 00 00 	lea    0x23f3(%rip),%rsi        # 42e8 <_IO_stdin_used+0x2e8>
    1ef5:	bf 01 00 00 00       	mov    $0x1,%edi
    1efa:	b8 00 00 00 00       	mov    $0x0,%eax
    1eff:	e8 ac f4 ff ff       	callq  13b0 <__printf_chk@plt>
    1f04:	bf 02 00 00 00       	mov    $0x2,%edi
    1f09:	e8 5c 04 00 00       	callq  236a <fail>
    1f0e:	bf 00 00 00 00       	mov    $0x0,%edi
    1f13:	e8 e8 f4 ff ff       	callq  1400 <exit@plt>
    1f18:	48 8d 35 a1 23 00 00 	lea    0x23a1(%rip),%rsi        # 42c0 <_IO_stdin_used+0x2c0>
    1f1f:	bf 01 00 00 00       	mov    $0x1,%edi
    1f24:	b8 00 00 00 00       	mov    $0x0,%eax
    1f29:	e8 82 f4 ff ff       	callq  13b0 <__printf_chk@plt>
    1f2e:	bf 02 00 00 00       	mov    $0x2,%edi
    1f33:	e8 5e 03 00 00       	callq  2296 <validate>
    1f38:	eb d4                	jmp    1f0e <touch2+0x3e>

0000000000001f3a <hexmatch>:
    1f3a:	f3 0f 1e fa          	endbr64 
    1f3e:	41 55                	push   %r13
    1f40:	41 54                	push   %r12
    1f42:	55                   	push   %rbp
    1f43:	53                   	push   %rbx
    1f44:	48 81 ec 88 00 00 00 	sub    $0x88,%rsp
    1f4b:	89 fd                	mov    %edi,%ebp
    1f4d:	48 89 f3             	mov    %rsi,%rbx
    1f50:	41 bc 28 00 00 00    	mov    $0x28,%r12d
    1f56:	64 49 8b 04 24       	mov    %fs:(%r12),%rax
    1f5b:	48 89 44 24 78       	mov    %rax,0x78(%rsp)
    1f60:	31 c0                	xor    %eax,%eax
    1f62:	e8 19 f4 ff ff       	callq  1380 <random@plt>
    1f67:	48 89 c1             	mov    %rax,%rcx
    1f6a:	48 ba 0b d7 a3 70 3d 	movabs $0xa3d70a3d70a3d70b,%rdx
    1f71:	0a d7 a3 
    1f74:	48 f7 ea             	imul   %rdx
    1f77:	48 01 ca             	add    %rcx,%rdx
    1f7a:	48 c1 fa 06          	sar    $0x6,%rdx
    1f7e:	48 89 c8             	mov    %rcx,%rax
    1f81:	48 c1 f8 3f          	sar    $0x3f,%rax
    1f85:	48 29 c2             	sub    %rax,%rdx
    1f88:	48 8d 04 92          	lea    (%rdx,%rdx,4),%rax
    1f8c:	48 8d 04 80          	lea    (%rax,%rax,4),%rax
    1f90:	48 c1 e0 02          	shl    $0x2,%rax
    1f94:	48 29 c1             	sub    %rax,%rcx
    1f97:	4c 8d 2c 0c          	lea    (%rsp,%rcx,1),%r13
    1f9b:	41 89 e8             	mov    %ebp,%r8d
    1f9e:	48 8d 0d 14 23 00 00 	lea    0x2314(%rip),%rcx        # 42b9 <_IO_stdin_used+0x2b9>
    1fa5:	48 c7 c2 ff ff ff ff 	mov    $0xffffffffffffffff,%rdx
    1fac:	be 01 00 00 00       	mov    $0x1,%esi
    1fb1:	4c 89 ef             	mov    %r13,%rdi
    1fb4:	b8 00 00 00 00       	mov    $0x0,%eax
    1fb9:	e8 82 f4 ff ff       	callq  1440 <__sprintf_chk@plt>
    1fbe:	ba 09 00 00 00       	mov    $0x9,%edx
    1fc3:	4c 89 ee             	mov    %r13,%rsi
    1fc6:	48 89 df             	mov    %rbx,%rdi
    1fc9:	e8 b2 f2 ff ff       	callq  1280 <strncmp@plt>
    1fce:	85 c0                	test   %eax,%eax
    1fd0:	0f 94 c0             	sete   %al
    1fd3:	48 8b 5c 24 78       	mov    0x78(%rsp),%rbx
    1fd8:	64 49 33 1c 24       	xor    %fs:(%r12),%rbx
    1fdd:	75 11                	jne    1ff0 <hexmatch+0xb6>
    1fdf:	0f b6 c0             	movzbl %al,%eax
    1fe2:	48 81 c4 88 00 00 00 	add    $0x88,%rsp
    1fe9:	5b                   	pop    %rbx
    1fea:	5d                   	pop    %rbp
    1feb:	41 5c                	pop    %r12
    1fed:	41 5d                	pop    %r13
    1fef:	c3                   	retq   
    1ff0:	e8 cb f2 ff ff       	callq  12c0 <__stack_chk_fail@plt>

0000000000001ff5 <touch3>:
    1ff5:	f3 0f 1e fa          	endbr64 
    1ff9:	53                   	push   %rbx
    1ffa:	48 89 fb             	mov    %rdi,%rbx
    1ffd:	c7 05 b9 53 00 00 03 	movl   $0x3,0x53b9(%rip)        # 73c0 <vlevel>
    2004:	00 00 00 
    2007:	48 89 fe             	mov    %rdi,%rsi
    200a:	8b 3d b8 53 00 00    	mov    0x53b8(%rip),%edi        # 73c8 <cookie>
    2010:	e8 25 ff ff ff       	callq  1f3a <hexmatch>
    2015:	85 c0                	test   %eax,%eax
    2017:	74 2d                	je     2046 <touch3+0x51>
    2019:	48 89 da             	mov    %rbx,%rdx
    201c:	48 8d 35 ed 22 00 00 	lea    0x22ed(%rip),%rsi        # 4310 <_IO_stdin_used+0x310>
    2023:	bf 01 00 00 00       	mov    $0x1,%edi
    2028:	b8 00 00 00 00       	mov    $0x0,%eax
    202d:	e8 7e f3 ff ff       	callq  13b0 <__printf_chk@plt>
    2032:	bf 03 00 00 00       	mov    $0x3,%edi
    2037:	e8 5a 02 00 00       	callq  2296 <validate>
    203c:	bf 00 00 00 00       	mov    $0x0,%edi
    2041:	e8 ba f3 ff ff       	callq  1400 <exit@plt>
    2046:	48 89 da             	mov    %rbx,%rdx
    2049:	48 8d 35 e8 22 00 00 	lea    0x22e8(%rip),%rsi        # 4338 <_IO_stdin_used+0x338>
    2050:	bf 01 00 00 00       	mov    $0x1,%edi
    2055:	b8 00 00 00 00       	mov    $0x0,%eax
    205a:	e8 51 f3 ff ff       	callq  13b0 <__printf_chk@plt>
    205f:	bf 03 00 00 00       	mov    $0x3,%edi
    2064:	e8 01 03 00 00       	callq  236a <fail>
    2069:	eb d1                	jmp    203c <touch3+0x47>

000000000000206b <test>:
    206b:	f3 0f 1e fa          	endbr64 
    206f:	48 83 ec 08          	sub    $0x8,%rsp
    2073:	b8 00 00 00 00       	mov    $0x0,%eax
    2078:	e8 05 fe ff ff       	callq  1e82 <getbuf>
    207d:	89 c2                	mov    %eax,%edx
    207f:	48 8d 35 da 22 00 00 	lea    0x22da(%rip),%rsi        # 4360 <_IO_stdin_used+0x360>
    2086:	bf 01 00 00 00       	mov    $0x1,%edi
    208b:	b8 00 00 00 00       	mov    $0x0,%eax
    2090:	e8 1b f3 ff ff       	callq  13b0 <__printf_chk@plt>
    2095:	48 83 c4 08          	add    $0x8,%rsp
    2099:	c3                   	retq   

000000000000209a <save_char>:
    209a:	8b 05 44 5f 00 00    	mov    0x5f44(%rip),%eax        # 7fe4 <gets_cnt>
    20a0:	3d ff 03 00 00       	cmp    $0x3ff,%eax
    20a5:	7f 4a                	jg     20f1 <save_char+0x57>
    20a7:	89 f9                	mov    %edi,%ecx
    20a9:	c0 e9 04             	shr    $0x4,%cl
    20ac:	8d 14 40             	lea    (%rax,%rax,2),%edx
    20af:	4c 8d 05 1a 25 00 00 	lea    0x251a(%rip),%r8        # 45d0 <trans_char>
    20b6:	83 e1 0f             	and    $0xf,%ecx
    20b9:	45 0f b6 0c 08       	movzbl (%r8,%rcx,1),%r9d
    20be:	48 8d 0d 1b 53 00 00 	lea    0x531b(%rip),%rcx        # 73e0 <gets_buf>
    20c5:	48 63 f2             	movslq %edx,%rsi
    20c8:	44 88 0c 31          	mov    %r9b,(%rcx,%rsi,1)
    20cc:	8d 72 01             	lea    0x1(%rdx),%esi
    20cf:	83 e7 0f             	and    $0xf,%edi
    20d2:	41 0f b6 3c 38       	movzbl (%r8,%rdi,1),%edi
    20d7:	48 63 f6             	movslq %esi,%rsi
    20da:	40 88 3c 31          	mov    %dil,(%rcx,%rsi,1)
    20de:	83 c2 02             	add    $0x2,%edx
    20e1:	48 63 d2             	movslq %edx,%rdx
    20e4:	c6 04 11 20          	movb   $0x20,(%rcx,%rdx,1)
    20e8:	83 c0 01             	add    $0x1,%eax
    20eb:	89 05 f3 5e 00 00    	mov    %eax,0x5ef3(%rip)        # 7fe4 <gets_cnt>
    20f1:	c3                   	retq   

00000000000020f2 <save_term>:
    20f2:	8b 05 ec 5e 00 00    	mov    0x5eec(%rip),%eax        # 7fe4 <gets_cnt>
    20f8:	8d 04 40             	lea    (%rax,%rax,2),%eax
    20fb:	48 98                	cltq   
    20fd:	48 8d 15 dc 52 00 00 	lea    0x52dc(%rip),%rdx        # 73e0 <gets_buf>
    2104:	c6 04 02 00          	movb   $0x0,(%rdx,%rax,1)
    2108:	c3                   	retq   

0000000000002109 <check_fail>:
    2109:	f3 0f 1e fa          	endbr64 
    210d:	50                   	push   %rax
    210e:	58                   	pop    %rax
    210f:	48 83 ec 08          	sub    $0x8,%rsp
    2113:	0f be 15 ce 5e 00 00 	movsbl 0x5ece(%rip),%edx        # 7fe8 <target_prefix>
    211a:	4c 8d 05 bf 52 00 00 	lea    0x52bf(%rip),%r8        # 73e0 <gets_buf>
    2121:	8b 0d 95 52 00 00    	mov    0x5295(%rip),%ecx        # 73bc <check_level>
    2127:	48 8d 35 55 22 00 00 	lea    0x2255(%rip),%rsi        # 4383 <_IO_stdin_used+0x383>
    212e:	bf 01 00 00 00       	mov    $0x1,%edi
    2133:	b8 00 00 00 00       	mov    $0x0,%eax
    2138:	e8 73 f2 ff ff       	callq  13b0 <__printf_chk@plt>
    213d:	bf 01 00 00 00       	mov    $0x1,%edi
    2142:	e8 b9 f2 ff ff       	callq  1400 <exit@plt>

0000000000002147 <Gets>:
    2147:	f3 0f 1e fa          	endbr64 
    214b:	41 54                	push   %r12
    214d:	55                   	push   %rbp
    214e:	53                   	push   %rbx
    214f:	49 89 fc             	mov    %rdi,%r12
    2152:	c7 05 88 5e 00 00 00 	movl   $0x0,0x5e88(%rip)        # 7fe4 <gets_cnt>
    2159:	00 00 00 
    215c:	48 89 fb             	mov    %rdi,%rbx
    215f:	48 8b 3d 4a 52 00 00 	mov    0x524a(%rip),%rdi        # 73b0 <infile>
    2166:	e8 c5 f2 ff ff       	callq  1430 <getc@plt>
    216b:	83 f8 ff             	cmp    $0xffffffff,%eax
    216e:	74 18                	je     2188 <Gets+0x41>
    2170:	83 f8 0a             	cmp    $0xa,%eax
    2173:	74 13                	je     2188 <Gets+0x41>
    2175:	48 8d 6b 01          	lea    0x1(%rbx),%rbp
    2179:	88 03                	mov    %al,(%rbx)
    217b:	0f b6 f8             	movzbl %al,%edi
    217e:	e8 17 ff ff ff       	callq  209a <save_char>
    2183:	48 89 eb             	mov    %rbp,%rbx
    2186:	eb d7                	jmp    215f <Gets+0x18>
    2188:	c6 03 00             	movb   $0x0,(%rbx)
    218b:	b8 00 00 00 00       	mov    $0x0,%eax
    2190:	e8 5d ff ff ff       	callq  20f2 <save_term>
    2195:	4c 89 e0             	mov    %r12,%rax
    2198:	5b                   	pop    %rbx
    2199:	5d                   	pop    %rbp
    219a:	41 5c                	pop    %r12
    219c:	c3                   	retq   

000000000000219d <notify_server>:
    219d:	f3 0f 1e fa          	endbr64 
    21a1:	53                   	push   %rbx
    21a2:	48 81 ec 00 10 00 00 	sub    $0x1000,%rsp
    21a9:	48 83 0c 24 00       	orq    $0x0,(%rsp)
    21ae:	48 81 ec 00 10 00 00 	sub    $0x1000,%rsp
    21b5:	48 83 0c 24 00       	orq    $0x0,(%rsp)
    21ba:	48 83 ec 10          	sub    $0x10,%rsp
    21be:	64 48 8b 04 25 28 00 	mov    %fs:0x28,%rax
    21c5:	00 00 
    21c7:	48 89 84 24 08 20 00 	mov    %rax,0x2008(%rsp)
    21ce:	00 
    21cf:	31 c0                	xor    %eax,%eax
    21d1:	83 3d f4 51 00 00 00 	cmpl   $0x0,0x51f4(%rip)        # 73cc <is_checker>
    21d8:	0f 85 8e 00 00 00    	jne    226c <notify_server+0xcf>
    21de:	81 3d fc 5d 00 00 9c 	cmpl   $0x1f9c,0x5dfc(%rip)        # 7fe4 <gets_cnt>
    21e5:	1f 00 00 
    21e8:	7f 18                	jg     2202 <notify_server+0x65>
    21ea:	0f be 05 f7 5d 00 00 	movsbl 0x5df7(%rip),%eax        # 7fe8 <target_prefix>
    21f1:	83 3d c0 51 00 00 00 	cmpl   $0x0,0x51c0(%rip)        # 73b8 <notify>
    21f8:	74 23                	je     221d <notify_server+0x80>
    21fa:	8b 15 c4 51 00 00    	mov    0x51c4(%rip),%edx        # 73c4 <authkey>
    2200:	eb 20                	jmp    2222 <notify_server+0x85>
    2202:	48 8d 35 5f 22 00 00 	lea    0x225f(%rip),%rsi        # 4468 <_IO_stdin_used+0x468>
    2209:	bf 01 00 00 00       	mov    $0x1,%edi
    220e:	e8 9d f1 ff ff       	callq  13b0 <__printf_chk@plt>
    2213:	bf 01 00 00 00       	mov    $0x1,%edi
    2218:	e8 e3 f1 ff ff       	callq  1400 <exit@plt>
    221d:	ba ff ff ff ff       	mov    $0xffffffff,%edx
    2222:	85 ff                	test   %edi,%edi
    2224:	74 62                	je     2288 <notify_server+0xeb>
    2226:	48 8d 1d 71 21 00 00 	lea    0x2171(%rip),%rbx        # 439e <_IO_stdin_used+0x39e>
    222d:	48 89 e7             	mov    %rsp,%rdi
    2230:	48 8d 0d a9 51 00 00 	lea    0x51a9(%rip),%rcx        # 73e0 <gets_buf>
    2237:	51                   	push   %rcx
    2238:	56                   	push   %rsi
    2239:	50                   	push   %rax
    223a:	52                   	push   %rdx
    223b:	49 89 d9             	mov    %rbx,%r9
    223e:	44 8b 05 cb 4d 00 00 	mov    0x4dcb(%rip),%r8d        # 7010 <target_id>
    2245:	48 8d 0d 57 21 00 00 	lea    0x2157(%rip),%rcx        # 43a3 <_IO_stdin_used+0x3a3>
    224c:	ba 00 20 00 00       	mov    $0x2000,%edx
    2251:	be 01 00 00 00       	mov    $0x1,%esi
    2256:	b8 00 00 00 00       	mov    $0x0,%eax
    225b:	e8 e0 f1 ff ff       	callq  1440 <__sprintf_chk@plt>
    2260:	48 83 c4 20          	add    $0x20,%rsp
    2264:	48 89 df             	mov    %rbx,%rdi
    2267:	e8 34 f0 ff ff       	callq  12a0 <puts@plt>
    226c:	48 8b 84 24 08 20 00 	mov    0x2008(%rsp),%rax
    2273:	00 
    2274:	64 48 33 04 25 28 00 	xor    %fs:0x28,%rax
    227b:	00 00 
    227d:	75 12                	jne    2291 <notify_server+0xf4>
    227f:	48 81 c4 10 20 00 00 	add    $0x2010,%rsp
    2286:	5b                   	pop    %rbx
    2287:	c3                   	retq   
    2288:	48 8d 1d 0a 21 00 00 	lea    0x210a(%rip),%rbx        # 4399 <_IO_stdin_used+0x399>
    228f:	eb 9c                	jmp    222d <notify_server+0x90>
    2291:	e8 2a f0 ff ff       	callq  12c0 <__stack_chk_fail@plt>

0000000000002296 <validate>:
    2296:	f3 0f 1e fa          	endbr64 
    229a:	53                   	push   %rbx
    229b:	89 fb                	mov    %edi,%ebx
    229d:	83 3d 28 51 00 00 00 	cmpl   $0x0,0x5128(%rip)        # 73cc <is_checker>
    22a4:	74 72                	je     2318 <validate+0x82>
    22a6:	39 3d 14 51 00 00    	cmp    %edi,0x5114(%rip)        # 73c0 <vlevel>
    22ac:	75 32                	jne    22e0 <validate+0x4a>
    22ae:	8b 15 08 51 00 00    	mov    0x5108(%rip),%edx        # 73bc <check_level>
    22b4:	39 fa                	cmp    %edi,%edx
    22b6:	75 3e                	jne    22f6 <validate+0x60>
    22b8:	0f be 15 29 5d 00 00 	movsbl 0x5d29(%rip),%edx        # 7fe8 <target_prefix>
    22bf:	4c 8d 05 1a 51 00 00 	lea    0x511a(%rip),%r8        # 73e0 <gets_buf>
    22c6:	89 f9                	mov    %edi,%ecx
    22c8:	48 8d 35 0e 21 00 00 	lea    0x210e(%rip),%rsi        # 43dd <_IO_stdin_used+0x3dd>
    22cf:	bf 01 00 00 00       	mov    $0x1,%edi
    22d4:	b8 00 00 00 00       	mov    $0x0,%eax
    22d9:	e8 d2 f0 ff ff       	callq  13b0 <__printf_chk@plt>
    22de:	5b                   	pop    %rbx
    22df:	c3                   	retq   
    22e0:	48 8d 3d d8 20 00 00 	lea    0x20d8(%rip),%rdi        # 43bf <_IO_stdin_used+0x3bf>
    22e7:	e8 b4 ef ff ff       	callq  12a0 <puts@plt>
    22ec:	b8 00 00 00 00       	mov    $0x0,%eax
    22f1:	e8 13 fe ff ff       	callq  2109 <check_fail>
    22f6:	89 f9                	mov    %edi,%ecx
    22f8:	48 8d 35 99 21 00 00 	lea    0x2199(%rip),%rsi        # 4498 <_IO_stdin_used+0x498>
    22ff:	bf 01 00 00 00       	mov    $0x1,%edi
    2304:	b8 00 00 00 00       	mov    $0x0,%eax
    2309:	e8 a2 f0 ff ff       	callq  13b0 <__printf_chk@plt>
    230e:	b8 00 00 00 00       	mov    $0x0,%eax
    2313:	e8 f1 fd ff ff       	callq  2109 <check_fail>
    2318:	39 3d a2 50 00 00    	cmp    %edi,0x50a2(%rip)        # 73c0 <vlevel>
    231e:	74 1a                	je     233a <validate+0xa4>
    2320:	48 8d 3d 98 20 00 00 	lea    0x2098(%rip),%rdi        # 43bf <_IO_stdin_used+0x3bf>
    2327:	e8 74 ef ff ff       	callq  12a0 <puts@plt>
    232c:	89 de                	mov    %ebx,%esi
    232e:	bf 00 00 00 00       	mov    $0x0,%edi
    2333:	e8 65 fe ff ff       	callq  219d <notify_server>
    2338:	eb a4                	jmp    22de <validate+0x48>
    233a:	0f be 0d a7 5c 00 00 	movsbl 0x5ca7(%rip),%ecx        # 7fe8 <target_prefix>
    2341:	89 fa                	mov    %edi,%edx
    2343:	48 8d 35 76 21 00 00 	lea    0x2176(%rip),%rsi        # 44c0 <_IO_stdin_used+0x4c0>
    234a:	bf 01 00 00 00       	mov    $0x1,%edi
    234f:	b8 00 00 00 00       	mov    $0x0,%eax
    2354:	e8 57 f0 ff ff       	callq  13b0 <__printf_chk@plt>
    2359:	89 de                	mov    %ebx,%esi
    235b:	bf 01 00 00 00       	mov    $0x1,%edi
    2360:	e8 38 fe ff ff       	callq  219d <notify_server>
    2365:	e9 74 ff ff ff       	jmpq   22de <validate+0x48>

000000000000236a <fail>:
    236a:	f3 0f 1e fa          	endbr64 
    236e:	48 83 ec 08          	sub    $0x8,%rsp
    2372:	83 3d 53 50 00 00 00 	cmpl   $0x0,0x5053(%rip)        # 73cc <is_checker>
    2379:	75 11                	jne    238c <fail+0x22>
    237b:	89 fe                	mov    %edi,%esi
    237d:	bf 00 00 00 00       	mov    $0x0,%edi
    2382:	e8 16 fe ff ff       	callq  219d <notify_server>
    2387:	48 83 c4 08          	add    $0x8,%rsp
    238b:	c3                   	retq   
    238c:	b8 00 00 00 00       	mov    $0x0,%eax
    2391:	e8 73 fd ff ff       	callq  2109 <check_fail>

0000000000002396 <bushandler>:
    2396:	f3 0f 1e fa          	endbr64 
    239a:	50                   	push   %rax
    239b:	58                   	pop    %rax
    239c:	48 83 ec 08          	sub    $0x8,%rsp
    23a0:	83 3d 25 50 00 00 00 	cmpl   $0x0,0x5025(%rip)        # 73cc <is_checker>
    23a7:	74 16                	je     23bf <bushandler+0x29>
    23a9:	48 8d 3d 42 20 00 00 	lea    0x2042(%rip),%rdi        # 43f2 <_IO_stdin_used+0x3f2>
    23b0:	e8 eb ee ff ff       	callq  12a0 <puts@plt>
    23b5:	b8 00 00 00 00       	mov    $0x0,%eax
    23ba:	e8 4a fd ff ff       	callq  2109 <check_fail>
    23bf:	48 8d 3d 32 21 00 00 	lea    0x2132(%rip),%rdi        # 44f8 <_IO_stdin_used+0x4f8>
    23c6:	e8 d5 ee ff ff       	callq  12a0 <puts@plt>
    23cb:	48 8d 3d 2a 20 00 00 	lea    0x202a(%rip),%rdi        # 43fc <_IO_stdin_used+0x3fc>
    23d2:	e8 c9 ee ff ff       	callq  12a0 <puts@plt>
    23d7:	be 00 00 00 00       	mov    $0x0,%esi
    23dc:	bf 00 00 00 00       	mov    $0x0,%edi
    23e1:	e8 b7 fd ff ff       	callq  219d <notify_server>
    23e6:	bf 01 00 00 00       	mov    $0x1,%edi
    23eb:	e8 10 f0 ff ff       	callq  1400 <exit@plt>

00000000000023f0 <seghandler>:
    23f0:	f3 0f 1e fa          	endbr64 
    23f4:	50                   	push   %rax
    23f5:	58                   	pop    %rax
    23f6:	48 83 ec 08          	sub    $0x8,%rsp
    23fa:	83 3d cb 4f 00 00 00 	cmpl   $0x0,0x4fcb(%rip)        # 73cc <is_checker>
    2401:	74 16                	je     2419 <seghandler+0x29>
    2403:	48 8d 3d 08 20 00 00 	lea    0x2008(%rip),%rdi        # 4412 <_IO_stdin_used+0x412>
    240a:	e8 91 ee ff ff       	callq  12a0 <puts@plt>
    240f:	b8 00 00 00 00       	mov    $0x0,%eax
    2414:	e8 f0 fc ff ff       	callq  2109 <check_fail>
    2419:	48 8d 3d f8 20 00 00 	lea    0x20f8(%rip),%rdi        # 4518 <_IO_stdin_used+0x518>
    2420:	e8 7b ee ff ff       	callq  12a0 <puts@plt>
    2425:	48 8d 3d d0 1f 00 00 	lea    0x1fd0(%rip),%rdi        # 43fc <_IO_stdin_used+0x3fc>
    242c:	e8 6f ee ff ff       	callq  12a0 <puts@plt>
    2431:	be 00 00 00 00       	mov    $0x0,%esi
    2436:	bf 00 00 00 00       	mov    $0x0,%edi
    243b:	e8 5d fd ff ff       	callq  219d <notify_server>
    2440:	bf 01 00 00 00       	mov    $0x1,%edi
    2445:	e8 b6 ef ff ff       	callq  1400 <exit@plt>

000000000000244a <illegalhandler>:
    244a:	f3 0f 1e fa          	endbr64 
    244e:	50                   	push   %rax
    244f:	58                   	pop    %rax
    2450:	48 83 ec 08          	sub    $0x8,%rsp
    2454:	83 3d 71 4f 00 00 00 	cmpl   $0x0,0x4f71(%rip)        # 73cc <is_checker>
    245b:	74 16                	je     2473 <illegalhandler+0x29>
    245d:	48 8d 3d c1 1f 00 00 	lea    0x1fc1(%rip),%rdi        # 4425 <_IO_stdin_used+0x425>
    2464:	e8 37 ee ff ff       	callq  12a0 <puts@plt>
    2469:	b8 00 00 00 00       	mov    $0x0,%eax
    246e:	e8 96 fc ff ff       	callq  2109 <check_fail>
    2473:	48 8d 3d c6 20 00 00 	lea    0x20c6(%rip),%rdi        # 4540 <_IO_stdin_used+0x540>
    247a:	e8 21 ee ff ff       	callq  12a0 <puts@plt>
    247f:	48 8d 3d 76 1f 00 00 	lea    0x1f76(%rip),%rdi        # 43fc <_IO_stdin_used+0x3fc>
    2486:	e8 15 ee ff ff       	callq  12a0 <puts@plt>
    248b:	be 00 00 00 00       	mov    $0x0,%esi
    2490:	bf 00 00 00 00       	mov    $0x0,%edi
    2495:	e8 03 fd ff ff       	callq  219d <notify_server>
    249a:	bf 01 00 00 00       	mov    $0x1,%edi
    249f:	e8 5c ef ff ff       	callq  1400 <exit@plt>

00000000000024a4 <sigalrmhandler>:
    24a4:	f3 0f 1e fa          	endbr64 
    24a8:	50                   	push   %rax
    24a9:	58                   	pop    %rax
    24aa:	48 83 ec 08          	sub    $0x8,%rsp
    24ae:	83 3d 17 4f 00 00 00 	cmpl   $0x0,0x4f17(%rip)        # 73cc <is_checker>
    24b5:	74 16                	je     24cd <sigalrmhandler+0x29>
    24b7:	48 8d 3d 7b 1f 00 00 	lea    0x1f7b(%rip),%rdi        # 4439 <_IO_stdin_used+0x439>
    24be:	e8 dd ed ff ff       	callq  12a0 <puts@plt>
    24c3:	b8 00 00 00 00       	mov    $0x0,%eax
    24c8:	e8 3c fc ff ff       	callq  2109 <check_fail>
    24cd:	ba 05 00 00 00       	mov    $0x5,%edx
    24d2:	48 8d 35 97 20 00 00 	lea    0x2097(%rip),%rsi        # 4570 <_IO_stdin_used+0x570>
    24d9:	bf 01 00 00 00       	mov    $0x1,%edi
    24de:	b8 00 00 00 00       	mov    $0x0,%eax
    24e3:	e8 c8 ee ff ff       	callq  13b0 <__printf_chk@plt>
    24e8:	be 00 00 00 00       	mov    $0x0,%esi
    24ed:	bf 00 00 00 00       	mov    $0x0,%edi
    24f2:	e8 a6 fc ff ff       	callq  219d <notify_server>
    24f7:	bf 01 00 00 00       	mov    $0x1,%edi
    24fc:	e8 ff ee ff ff       	callq  1400 <exit@plt>

0000000000002501 <launch>:
    2501:	f3 0f 1e fa          	endbr64 
    2505:	55                   	push   %rbp
    2506:	48 89 e5             	mov    %rsp,%rbp
    2509:	48 83 ec 10          	sub    $0x10,%rsp
    250d:	48 89 fa             	mov    %rdi,%rdx
    2510:	64 48 8b 04 25 28 00 	mov    %fs:0x28,%rax
    2517:	00 00 
    2519:	48 89 45 f8          	mov    %rax,-0x8(%rbp)
    251d:	31 c0                	xor    %eax,%eax
    251f:	48 8d 47 17          	lea    0x17(%rdi),%rax
    2523:	48 89 c1             	mov    %rax,%rcx
    2526:	48 83 e1 f0          	and    $0xfffffffffffffff0,%rcx
    252a:	48 25 00 f0 ff ff    	and    $0xfffffffffffff000,%rax
    2530:	48 89 e6             	mov    %rsp,%rsi
    2533:	48 29 c6             	sub    %rax,%rsi
    2536:	48 89 f0             	mov    %rsi,%rax
    2539:	48 39 c4             	cmp    %rax,%rsp
    253c:	74 12                	je     2550 <launch+0x4f>
    253e:	48 81 ec 00 10 00 00 	sub    $0x1000,%rsp
    2545:	48 83 8c 24 f8 0f 00 	orq    $0x0,0xff8(%rsp)
    254c:	00 00 
    254e:	eb e9                	jmp    2539 <launch+0x38>
    2550:	48 89 c8             	mov    %rcx,%rax
    2553:	25 ff 0f 00 00       	and    $0xfff,%eax
    2558:	48 29 c4             	sub    %rax,%rsp
    255b:	48 85 c0             	test   %rax,%rax
    255e:	74 06                	je     2566 <launch+0x65>
    2560:	48 83 4c 04 f8 00    	orq    $0x0,-0x8(%rsp,%rax,1)
    2566:	48 8d 7c 24 0f       	lea    0xf(%rsp),%rdi
    256b:	48 83 e7 f0          	and    $0xfffffffffffffff0,%rdi
    256f:	be f4 00 00 00       	mov    $0xf4,%esi
    2574:	e8 67 ed ff ff       	callq  12e0 <memset@plt>
    2579:	48 8b 05 c0 4a 00 00 	mov    0x4ac0(%rip),%rax        # 7040 <stdin@@GLIBC_2.2.5>
    2580:	48 39 05 29 4e 00 00 	cmp    %rax,0x4e29(%rip)        # 73b0 <infile>
    2587:	74 3a                	je     25c3 <launch+0xc2>
    2589:	c7 05 2d 4e 00 00 00 	movl   $0x0,0x4e2d(%rip)        # 73c0 <vlevel>
    2590:	00 00 00 
    2593:	b8 00 00 00 00       	mov    $0x0,%eax
    2598:	e8 ce fa ff ff       	callq  206b <test>
    259d:	83 3d 28 4e 00 00 00 	cmpl   $0x0,0x4e28(%rip)        # 73cc <is_checker>
    25a4:	75 35                	jne    25db <launch+0xda>
    25a6:	48 8d 3d ac 1e 00 00 	lea    0x1eac(%rip),%rdi        # 4459 <_IO_stdin_used+0x459>
    25ad:	e8 ee ec ff ff       	callq  12a0 <puts@plt>
    25b2:	48 8b 45 f8          	mov    -0x8(%rbp),%rax
    25b6:	64 48 33 04 25 28 00 	xor    %fs:0x28,%rax
    25bd:	00 00 
    25bf:	75 30                	jne    25f1 <launch+0xf0>
    25c1:	c9                   	leaveq 
    25c2:	c3                   	retq   
    25c3:	48 8d 35 77 1e 00 00 	lea    0x1e77(%rip),%rsi        # 4441 <_IO_stdin_used+0x441>
    25ca:	bf 01 00 00 00       	mov    $0x1,%edi
    25cf:	b8 00 00 00 00       	mov    $0x0,%eax
    25d4:	e8 d7 ed ff ff       	callq  13b0 <__printf_chk@plt>
    25d9:	eb ae                	jmp    2589 <launch+0x88>
    25db:	48 8d 3d 6c 1e 00 00 	lea    0x1e6c(%rip),%rdi        # 444e <_IO_stdin_used+0x44e>
    25e2:	e8 b9 ec ff ff       	callq  12a0 <puts@plt>
    25e7:	b8 00 00 00 00       	mov    $0x0,%eax
    25ec:	e8 18 fb ff ff       	callq  2109 <check_fail>
    25f1:	e8 ca ec ff ff       	callq  12c0 <__stack_chk_fail@plt>

00000000000025f6 <stable_launch>:
    25f6:	f3 0f 1e fa          	endbr64 
    25fa:	53                   	push   %rbx
    25fb:	48 89 3d a6 4d 00 00 	mov    %rdi,0x4da6(%rip)        # 73a8 <global_offset>
    2602:	41 b9 00 00 00 00    	mov    $0x0,%r9d
    2608:	41 b8 00 00 00 00    	mov    $0x0,%r8d
    260e:	b9 32 01 00 00       	mov    $0x132,%ecx
    2613:	ba 07 00 00 00       	mov    $0x7,%edx
    2618:	be 00 00 10 00       	mov    $0x100000,%esi
    261d:	bf 00 60 58 55       	mov    $0x55586000,%edi
    2622:	e8 a9 ec ff ff       	callq  12d0 <mmap@plt>
    2627:	48 89 c3             	mov    %rax,%rbx
    262a:	48 3d 00 60 58 55    	cmp    $0x55586000,%rax
    2630:	75 43                	jne    2675 <stable_launch+0x7f>
    2632:	48 8d 90 f8 ff 0f 00 	lea    0xffff8(%rax),%rdx
    2639:	48 89 15 b0 59 00 00 	mov    %rdx,0x59b0(%rip)        # 7ff0 <stack_top>
    2640:	48 89 e0             	mov    %rsp,%rax
    2643:	48 89 d4             	mov    %rdx,%rsp
    2646:	48 89 c2             	mov    %rax,%rdx
    2649:	48 89 15 50 4d 00 00 	mov    %rdx,0x4d50(%rip)        # 73a0 <global_save_stack>
    2650:	48 8b 3d 51 4d 00 00 	mov    0x4d51(%rip),%rdi        # 73a8 <global_offset>
    2657:	e8 a5 fe ff ff       	callq  2501 <launch>
    265c:	48 8b 05 3d 4d 00 00 	mov    0x4d3d(%rip),%rax        # 73a0 <global_save_stack>
    2663:	48 89 c4             	mov    %rax,%rsp
    2666:	be 00 00 10 00       	mov    $0x100000,%esi
    266b:	48 89 df             	mov    %rbx,%rdi
    266e:	e8 2d ed ff ff       	callq  13a0 <munmap@plt>
    2673:	5b                   	pop    %rbx
    2674:	c3                   	retq   
    2675:	be 00 00 10 00       	mov    $0x100000,%esi
    267a:	48 89 c7             	mov    %rax,%rdi
    267d:	e8 1e ed ff ff       	callq  13a0 <munmap@plt>
    2682:	b9 00 60 58 55       	mov    $0x55586000,%ecx
    2687:	48 8d 15 1a 1f 00 00 	lea    0x1f1a(%rip),%rdx        # 45a8 <_IO_stdin_used+0x5a8>
    268e:	be 01 00 00 00       	mov    $0x1,%esi
    2693:	48 8b 3d c6 49 00 00 	mov    0x49c6(%rip),%rdi        # 7060 <stderr@@GLIBC_2.2.5>
    269a:	b8 00 00 00 00       	mov    $0x0,%eax
    269f:	e8 7c ed ff ff       	callq  1420 <__fprintf_chk@plt>
    26a4:	bf 01 00 00 00       	mov    $0x1,%edi
    26a9:	e8 52 ed ff ff       	callq  1400 <exit@plt>

00000000000026ae <rio_readinitb>:
    26ae:	89 37                	mov    %esi,(%rdi)
    26b0:	c7 47 04 00 00 00 00 	movl   $0x0,0x4(%rdi)
    26b7:	48 8d 47 10          	lea    0x10(%rdi),%rax
    26bb:	48 89 47 08          	mov    %rax,0x8(%rdi)
    26bf:	c3                   	retq   

00000000000026c0 <sigalrm_handler>:
    26c0:	f3 0f 1e fa          	endbr64 
    26c4:	50                   	push   %rax
    26c5:	58                   	pop    %rax
    26c6:	48 83 ec 08          	sub    $0x8,%rsp
    26ca:	b9 00 00 00 00       	mov    $0x0,%ecx
    26cf:	48 8d 15 0a 1f 00 00 	lea    0x1f0a(%rip),%rdx        # 45e0 <trans_char+0x10>
    26d6:	be 01 00 00 00       	mov    $0x1,%esi
    26db:	48 8b 3d 7e 49 00 00 	mov    0x497e(%rip),%rdi        # 7060 <stderr@@GLIBC_2.2.5>
    26e2:	b8 00 00 00 00       	mov    $0x0,%eax
    26e7:	e8 34 ed ff ff       	callq  1420 <__fprintf_chk@plt>
    26ec:	bf 01 00 00 00       	mov    $0x1,%edi
    26f1:	e8 0a ed ff ff       	callq  1400 <exit@plt>

00000000000026f6 <rio_writen>:
    26f6:	41 55                	push   %r13
    26f8:	41 54                	push   %r12
    26fa:	55                   	push   %rbp
    26fb:	53                   	push   %rbx
    26fc:	48 83 ec 08          	sub    $0x8,%rsp
    2700:	41 89 fc             	mov    %edi,%r12d
    2703:	48 89 f5             	mov    %rsi,%rbp
    2706:	49 89 d5             	mov    %rdx,%r13
    2709:	48 89 d3             	mov    %rdx,%rbx
    270c:	eb 06                	jmp    2714 <rio_writen+0x1e>
    270e:	48 29 c3             	sub    %rax,%rbx
    2711:	48 01 c5             	add    %rax,%rbp
    2714:	48 85 db             	test   %rbx,%rbx
    2717:	74 24                	je     273d <rio_writen+0x47>
    2719:	48 89 da             	mov    %rbx,%rdx
    271c:	48 89 ee             	mov    %rbp,%rsi
    271f:	44 89 e7             	mov    %r12d,%edi
    2722:	e8 89 eb ff ff       	callq  12b0 <write@plt>
    2727:	48 85 c0             	test   %rax,%rax
    272a:	7f e2                	jg     270e <rio_writen+0x18>
    272c:	e8 2f eb ff ff       	callq  1260 <__errno_location@plt>
    2731:	83 38 04             	cmpl   $0x4,(%rax)
    2734:	75 15                	jne    274b <rio_writen+0x55>
    2736:	b8 00 00 00 00       	mov    $0x0,%eax
    273b:	eb d1                	jmp    270e <rio_writen+0x18>
    273d:	4c 89 e8             	mov    %r13,%rax
    2740:	48 83 c4 08          	add    $0x8,%rsp
    2744:	5b                   	pop    %rbx
    2745:	5d                   	pop    %rbp
    2746:	41 5c                	pop    %r12
    2748:	41 5d                	pop    %r13
    274a:	c3                   	retq   
    274b:	48 c7 c0 ff ff ff ff 	mov    $0xffffffffffffffff,%rax
    2752:	eb ec                	jmp    2740 <rio_writen+0x4a>

0000000000002754 <rio_read>:
    2754:	41 55                	push   %r13
    2756:	41 54                	push   %r12
    2758:	55                   	push   %rbp
    2759:	53                   	push   %rbx
    275a:	48 83 ec 08          	sub    $0x8,%rsp
    275e:	48 89 fb             	mov    %rdi,%rbx
    2761:	49 89 f5             	mov    %rsi,%r13
    2764:	49 89 d4             	mov    %rdx,%r12
    2767:	eb 17                	jmp    2780 <rio_read+0x2c>
    2769:	e8 f2 ea ff ff       	callq  1260 <__errno_location@plt>
    276e:	83 38 04             	cmpl   $0x4,(%rax)
    2771:	74 0d                	je     2780 <rio_read+0x2c>
    2773:	48 c7 c0 ff ff ff ff 	mov    $0xffffffffffffffff,%rax
    277a:	eb 54                	jmp    27d0 <rio_read+0x7c>
    277c:	48 89 6b 08          	mov    %rbp,0x8(%rbx)
    2780:	8b 6b 04             	mov    0x4(%rbx),%ebp
    2783:	85 ed                	test   %ebp,%ebp
    2785:	7f 23                	jg     27aa <rio_read+0x56>
    2787:	48 8d 6b 10          	lea    0x10(%rbx),%rbp
    278b:	8b 3b                	mov    (%rbx),%edi
    278d:	ba 00 20 00 00       	mov    $0x2000,%edx
    2792:	48 89 ee             	mov    %rbp,%rsi
    2795:	e8 76 eb ff ff       	callq  1310 <read@plt>
    279a:	89 43 04             	mov    %eax,0x4(%rbx)
    279d:	85 c0                	test   %eax,%eax
    279f:	78 c8                	js     2769 <rio_read+0x15>
    27a1:	75 d9                	jne    277c <rio_read+0x28>
    27a3:	b8 00 00 00 00       	mov    $0x0,%eax
    27a8:	eb 26                	jmp    27d0 <rio_read+0x7c>
    27aa:	89 e8                	mov    %ebp,%eax
    27ac:	4c 39 e0             	cmp    %r12,%rax
    27af:	72 03                	jb     27b4 <rio_read+0x60>
    27b1:	44 89 e5             	mov    %r12d,%ebp
    27b4:	4c 63 e5             	movslq %ebp,%r12
    27b7:	48 8b 73 08          	mov    0x8(%rbx),%rsi
    27bb:	4c 89 e2             	mov    %r12,%rdx
    27be:	4c 89 ef             	mov    %r13,%rdi
    27c1:	e8 9a eb ff ff       	callq  1360 <memcpy@plt>
    27c6:	4c 01 63 08          	add    %r12,0x8(%rbx)
    27ca:	29 6b 04             	sub    %ebp,0x4(%rbx)
    27cd:	4c 89 e0             	mov    %r12,%rax
    27d0:	48 83 c4 08          	add    $0x8,%rsp
    27d4:	5b                   	pop    %rbx
    27d5:	5d                   	pop    %rbp
    27d6:	41 5c                	pop    %r12
    27d8:	41 5d                	pop    %r13
    27da:	c3                   	retq   

00000000000027db <rio_readlineb>:
    27db:	41 55                	push   %r13
    27dd:	41 54                	push   %r12
    27df:	55                   	push   %rbp
    27e0:	53                   	push   %rbx
    27e1:	48 83 ec 18          	sub    $0x18,%rsp
    27e5:	49 89 fd             	mov    %rdi,%r13
    27e8:	48 89 f5             	mov    %rsi,%rbp
    27eb:	49 89 d4             	mov    %rdx,%r12
    27ee:	64 48 8b 04 25 28 00 	mov    %fs:0x28,%rax
    27f5:	00 00 
    27f7:	48 89 44 24 08       	mov    %rax,0x8(%rsp)
    27fc:	31 c0                	xor    %eax,%eax
    27fe:	bb 01 00 00 00       	mov    $0x1,%ebx
    2803:	eb 18                	jmp    281d <rio_readlineb+0x42>
    2805:	85 c0                	test   %eax,%eax
    2807:	75 65                	jne    286e <rio_readlineb+0x93>
    2809:	48 83 fb 01          	cmp    $0x1,%rbx
    280d:	75 3d                	jne    284c <rio_readlineb+0x71>
    280f:	b8 00 00 00 00       	mov    $0x0,%eax
    2814:	eb 3d                	jmp    2853 <rio_readlineb+0x78>
    2816:	48 83 c3 01          	add    $0x1,%rbx
    281a:	48 89 d5             	mov    %rdx,%rbp
    281d:	4c 39 e3             	cmp    %r12,%rbx
    2820:	73 2a                	jae    284c <rio_readlineb+0x71>
    2822:	48 8d 74 24 07       	lea    0x7(%rsp),%rsi
    2827:	ba 01 00 00 00       	mov    $0x1,%edx
    282c:	4c 89 ef             	mov    %r13,%rdi
    282f:	e8 20 ff ff ff       	callq  2754 <rio_read>
    2834:	83 f8 01             	cmp    $0x1,%eax
    2837:	75 cc                	jne    2805 <rio_readlineb+0x2a>
    2839:	48 8d 55 01          	lea    0x1(%rbp),%rdx
    283d:	0f b6 44 24 07       	movzbl 0x7(%rsp),%eax
    2842:	88 45 00             	mov    %al,0x0(%rbp)
    2845:	3c 0a                	cmp    $0xa,%al
    2847:	75 cd                	jne    2816 <rio_readlineb+0x3b>
    2849:	48 89 d5             	mov    %rdx,%rbp
    284c:	c6 45 00 00          	movb   $0x0,0x0(%rbp)
    2850:	48 89 d8             	mov    %rbx,%rax
    2853:	48 8b 4c 24 08       	mov    0x8(%rsp),%rcx
    2858:	64 48 33 0c 25 28 00 	xor    %fs:0x28,%rcx
    285f:	00 00 
    2861:	75 14                	jne    2877 <rio_readlineb+0x9c>
    2863:	48 83 c4 18          	add    $0x18,%rsp
    2867:	5b                   	pop    %rbx
    2868:	5d                   	pop    %rbp
    2869:	41 5c                	pop    %r12
    286b:	41 5d                	pop    %r13
    286d:	c3                   	retq   
    286e:	48 c7 c0 ff ff ff ff 	mov    $0xffffffffffffffff,%rax
    2875:	eb dc                	jmp    2853 <rio_readlineb+0x78>
    2877:	e8 44 ea ff ff       	callq  12c0 <__stack_chk_fail@plt>

000000000000287c <urlencode>:
    287c:	41 54                	push   %r12
    287e:	55                   	push   %rbp
    287f:	53                   	push   %rbx
    2880:	48 83 ec 10          	sub    $0x10,%rsp
    2884:	48 89 fb             	mov    %rdi,%rbx
    2887:	48 89 f5             	mov    %rsi,%rbp
    288a:	64 48 8b 04 25 28 00 	mov    %fs:0x28,%rax
    2891:	00 00 
    2893:	48 89 44 24 08       	mov    %rax,0x8(%rsp)
    2898:	31 c0                	xor    %eax,%eax
    289a:	48 c7 c1 ff ff ff ff 	mov    $0xffffffffffffffff,%rcx
    28a1:	f2 ae                	repnz scas %es:(%rdi),%al
    28a3:	48 f7 d1             	not    %rcx
    28a6:	8d 41 ff             	lea    -0x1(%rcx),%eax
    28a9:	eb 0f                	jmp    28ba <urlencode+0x3e>
    28ab:	44 88 45 00          	mov    %r8b,0x0(%rbp)
    28af:	48 8d 6d 01          	lea    0x1(%rbp),%rbp
    28b3:	48 83 c3 01          	add    $0x1,%rbx
    28b7:	44 89 e0             	mov    %r12d,%eax
    28ba:	44 8d 60 ff          	lea    -0x1(%rax),%r12d
    28be:	85 c0                	test   %eax,%eax
    28c0:	0f 84 a8 00 00 00    	je     296e <urlencode+0xf2>
    28c6:	44 0f b6 03          	movzbl (%rbx),%r8d
    28ca:	41 80 f8 2a          	cmp    $0x2a,%r8b
    28ce:	0f 94 c2             	sete   %dl
    28d1:	41 80 f8 2d          	cmp    $0x2d,%r8b
    28d5:	0f 94 c0             	sete   %al
    28d8:	08 c2                	or     %al,%dl
    28da:	75 cf                	jne    28ab <urlencode+0x2f>
    28dc:	41 80 f8 2e          	cmp    $0x2e,%r8b
    28e0:	74 c9                	je     28ab <urlencode+0x2f>
    28e2:	41 80 f8 5f          	cmp    $0x5f,%r8b
    28e6:	74 c3                	je     28ab <urlencode+0x2f>
    28e8:	41 8d 40 d0          	lea    -0x30(%r8),%eax
    28ec:	3c 09                	cmp    $0x9,%al
    28ee:	76 bb                	jbe    28ab <urlencode+0x2f>
    28f0:	41 8d 40 bf          	lea    -0x41(%r8),%eax
    28f4:	3c 19                	cmp    $0x19,%al
    28f6:	76 b3                	jbe    28ab <urlencode+0x2f>
    28f8:	41 8d 40 9f          	lea    -0x61(%r8),%eax
    28fc:	3c 19                	cmp    $0x19,%al
    28fe:	76 ab                	jbe    28ab <urlencode+0x2f>
    2900:	41 80 f8 20          	cmp    $0x20,%r8b
    2904:	74 56                	je     295c <urlencode+0xe0>
    2906:	41 8d 40 e0          	lea    -0x20(%r8),%eax
    290a:	3c 5f                	cmp    $0x5f,%al
    290c:	0f 96 c2             	setbe  %dl
    290f:	41 80 f8 09          	cmp    $0x9,%r8b
    2913:	0f 94 c0             	sete   %al
    2916:	08 c2                	or     %al,%dl
    2918:	74 4f                	je     2969 <urlencode+0xed>
    291a:	48 89 e7             	mov    %rsp,%rdi
    291d:	45 0f b6 c0          	movzbl %r8b,%r8d
    2921:	48 8d 0d 4d 1d 00 00 	lea    0x1d4d(%rip),%rcx        # 4675 <trans_char+0xa5>
    2928:	ba 08 00 00 00       	mov    $0x8,%edx
    292d:	be 01 00 00 00       	mov    $0x1,%esi
    2932:	b8 00 00 00 00       	mov    $0x0,%eax
    2937:	e8 04 eb ff ff       	callq  1440 <__sprintf_chk@plt>
    293c:	0f b6 04 24          	movzbl (%rsp),%eax
    2940:	88 45 00             	mov    %al,0x0(%rbp)
    2943:	0f b6 44 24 01       	movzbl 0x1(%rsp),%eax
    2948:	88 45 01             	mov    %al,0x1(%rbp)
    294b:	0f b6 44 24 02       	movzbl 0x2(%rsp),%eax
    2950:	88 45 02             	mov    %al,0x2(%rbp)
    2953:	48 8d 6d 03          	lea    0x3(%rbp),%rbp
    2957:	e9 57 ff ff ff       	jmpq   28b3 <urlencode+0x37>
    295c:	c6 45 00 2b          	movb   $0x2b,0x0(%rbp)
    2960:	48 8d 6d 01          	lea    0x1(%rbp),%rbp
    2964:	e9 4a ff ff ff       	jmpq   28b3 <urlencode+0x37>
    2969:	b8 ff ff ff ff       	mov    $0xffffffff,%eax
    296e:	48 8b 74 24 08       	mov    0x8(%rsp),%rsi
    2973:	64 48 33 34 25 28 00 	xor    %fs:0x28,%rsi
    297a:	00 00 
    297c:	75 09                	jne    2987 <urlencode+0x10b>
    297e:	48 83 c4 10          	add    $0x10,%rsp
    2982:	5b                   	pop    %rbx
    2983:	5d                   	pop    %rbp
    2984:	41 5c                	pop    %r12
    2986:	c3                   	retq   
    2987:	e8 34 e9 ff ff       	callq  12c0 <__stack_chk_fail@plt>

000000000000298c <submitr>:
    298c:	f3 0f 1e fa          	endbr64 
    2990:	41 57                	push   %r15
    2992:	41 56                	push   %r14
    2994:	41 55                	push   %r13
    2996:	41 54                	push   %r12
    2998:	55                   	push   %rbp
    2999:	53                   	push   %rbx
    299a:	4c 8d 9c 24 00 60 ff 	lea    -0xa000(%rsp),%r11
    29a1:	ff 
    29a2:	48 81 ec 00 10 00 00 	sub    $0x1000,%rsp
    29a9:	48 83 0c 24 00       	orq    $0x0,(%rsp)
    29ae:	4c 39 dc             	cmp    %r11,%rsp
    29b1:	75 ef                	jne    29a2 <submitr+0x16>
    29b3:	48 83 ec 68          	sub    $0x68,%rsp
    29b7:	49 89 fc             	mov    %rdi,%r12
    29ba:	89 74 24 14          	mov    %esi,0x14(%rsp)
    29be:	49 89 d6             	mov    %rdx,%r14
    29c1:	48 89 4c 24 08       	mov    %rcx,0x8(%rsp)
    29c6:	4c 89 44 24 18       	mov    %r8,0x18(%rsp)
    29cb:	4d 89 cd             	mov    %r9,%r13
    29ce:	48 8b ac 24 a0 a0 00 	mov    0xa0a0(%rsp),%rbp
    29d5:	00 
    29d6:	64 48 8b 04 25 28 00 	mov    %fs:0x28,%rax
    29dd:	00 00 
    29df:	48 89 84 24 58 a0 00 	mov    %rax,0xa058(%rsp)
    29e6:	00 
    29e7:	31 c0                	xor    %eax,%eax
    29e9:	c7 44 24 2c 00 00 00 	movl   $0x0,0x2c(%rsp)
    29f0:	00 
    29f1:	ba 00 00 00 00       	mov    $0x0,%edx
    29f6:	be 01 00 00 00       	mov    $0x1,%esi
    29fb:	bf 02 00 00 00       	mov    $0x2,%edi
    2a00:	e8 4b ea ff ff       	callq  1450 <socket@plt>
    2a05:	85 c0                	test   %eax,%eax
    2a07:	0f 88 a0 02 00 00    	js     2cad <submitr+0x321>
    2a0d:	89 c3                	mov    %eax,%ebx
    2a0f:	4c 89 e7             	mov    %r12,%rdi
    2a12:	e8 19 e9 ff ff       	callq  1330 <gethostbyname@plt>
    2a17:	48 85 c0             	test   %rax,%rax
    2a1a:	0f 84 d9 02 00 00    	je     2cf9 <submitr+0x36d>
    2a20:	4c 8d 7c 24 30       	lea    0x30(%rsp),%r15
    2a25:	48 c7 44 24 30 00 00 	movq   $0x0,0x30(%rsp)
    2a2c:	00 00 
    2a2e:	48 c7 44 24 38 00 00 	movq   $0x0,0x38(%rsp)
    2a35:	00 00 
    2a37:	66 c7 44 24 30 02 00 	movw   $0x2,0x30(%rsp)
    2a3e:	48 63 50 14          	movslq 0x14(%rax),%rdx
    2a42:	48 8b 40 18          	mov    0x18(%rax),%rax
    2a46:	48 8b 30             	mov    (%rax),%rsi
    2a49:	48 8d 7c 24 34       	lea    0x34(%rsp),%rdi
    2a4e:	b9 0c 00 00 00       	mov    $0xc,%ecx
    2a53:	e8 e8 e8 ff ff       	callq  1340 <__memmove_chk@plt>
    2a58:	0f b7 74 24 14       	movzwl 0x14(%rsp),%esi
    2a5d:	66 c1 c6 08          	rol    $0x8,%si
    2a61:	66 89 74 24 32       	mov    %si,0x32(%rsp)
    2a66:	ba 10 00 00 00       	mov    $0x10,%edx
    2a6b:	4c 89 fe             	mov    %r15,%rsi
    2a6e:	89 df                	mov    %ebx,%edi
    2a70:	e8 9b e9 ff ff       	callq  1410 <connect@plt>
    2a75:	85 c0                	test   %eax,%eax
    2a77:	0f 88 e4 02 00 00    	js     2d61 <submitr+0x3d5>
    2a7d:	49 c7 c0 ff ff ff ff 	mov    $0xffffffffffffffff,%r8
    2a84:	b8 00 00 00 00       	mov    $0x0,%eax
    2a89:	4c 89 c1             	mov    %r8,%rcx
    2a8c:	4c 89 ef             	mov    %r13,%rdi
    2a8f:	f2 ae                	repnz scas %es:(%rdi),%al
    2a91:	48 89 ca             	mov    %rcx,%rdx
    2a94:	48 f7 d2             	not    %rdx
    2a97:	4c 89 c1             	mov    %r8,%rcx
    2a9a:	4c 89 f7             	mov    %r14,%rdi
    2a9d:	f2 ae                	repnz scas %es:(%rdi),%al
    2a9f:	48 f7 d1             	not    %rcx
    2aa2:	48 89 ce             	mov    %rcx,%rsi
    2aa5:	4c 89 c1             	mov    %r8,%rcx
    2aa8:	48 8b 7c 24 08       	mov    0x8(%rsp),%rdi
    2aad:	f2 ae                	repnz scas %es:(%rdi),%al
    2aaf:	48 f7 d1             	not    %rcx
    2ab2:	48 8d 74 0e fe       	lea    -0x2(%rsi,%rcx,1),%rsi
    2ab7:	4c 89 c1             	mov    %r8,%rcx
    2aba:	48 8b 7c 24 18       	mov    0x18(%rsp),%rdi
    2abf:	f2 ae                	repnz scas %es:(%rdi),%al
    2ac1:	48 89 c8             	mov    %rcx,%rax
    2ac4:	48 f7 d0             	not    %rax
    2ac7:	48 8d 4c 06 ff       	lea    -0x1(%rsi,%rax,1),%rcx
    2acc:	48 8d 44 52 fd       	lea    -0x3(%rdx,%rdx,2),%rax
    2ad1:	48 8d 84 01 80 00 00 	lea    0x80(%rcx,%rax,1),%rax
    2ad8:	00 
    2ad9:	48 3d 00 20 00 00    	cmp    $0x2000,%rax
    2adf:	0f 87 d6 02 00 00    	ja     2dbb <submitr+0x42f>
    2ae5:	48 8d b4 24 50 40 00 	lea    0x4050(%rsp),%rsi
    2aec:	00 
    2aed:	b9 00 04 00 00       	mov    $0x400,%ecx
    2af2:	b8 00 00 00 00       	mov    $0x0,%eax
    2af7:	48 89 f7             	mov    %rsi,%rdi
    2afa:	f3 48 ab             	rep stos %rax,%es:(%rdi)
    2afd:	4c 89 ef             	mov    %r13,%rdi
    2b00:	e8 77 fd ff ff       	callq  287c <urlencode>
    2b05:	85 c0                	test   %eax,%eax
    2b07:	0f 88 21 03 00 00    	js     2e2e <submitr+0x4a2>
    2b0d:	4c 8d bc 24 50 20 00 	lea    0x2050(%rsp),%r15
    2b14:	00 
    2b15:	41 54                	push   %r12
    2b17:	48 8d 84 24 58 40 00 	lea    0x4058(%rsp),%rax
    2b1e:	00 
    2b1f:	50                   	push   %rax
    2b20:	4d 89 f1             	mov    %r14,%r9
    2b23:	4c 8b 44 24 18       	mov    0x18(%rsp),%r8
    2b28:	48 8d 0d d9 1a 00 00 	lea    0x1ad9(%rip),%rcx        # 4608 <trans_char+0x38>
    2b2f:	ba 00 20 00 00       	mov    $0x2000,%edx
    2b34:	be 01 00 00 00       	mov    $0x1,%esi
    2b39:	4c 89 ff             	mov    %r15,%rdi
    2b3c:	b8 00 00 00 00       	mov    $0x0,%eax
    2b41:	e8 fa e8 ff ff       	callq  1440 <__sprintf_chk@plt>
    2b46:	48 c7 c1 ff ff ff ff 	mov    $0xffffffffffffffff,%rcx
    2b4d:	b8 00 00 00 00       	mov    $0x0,%eax
    2b52:	4c 89 ff             	mov    %r15,%rdi
    2b55:	f2 ae                	repnz scas %es:(%rdi),%al
    2b57:	48 f7 d1             	not    %rcx
    2b5a:	48 8d 51 ff          	lea    -0x1(%rcx),%rdx
    2b5e:	4c 89 fe             	mov    %r15,%rsi
    2b61:	89 df                	mov    %ebx,%edi
    2b63:	e8 8e fb ff ff       	callq  26f6 <rio_writen>
    2b68:	48 83 c4 10          	add    $0x10,%rsp
    2b6c:	48 85 c0             	test   %rax,%rax
    2b6f:	0f 88 44 03 00 00    	js     2eb9 <submitr+0x52d>
    2b75:	4c 8d 64 24 40       	lea    0x40(%rsp),%r12
    2b7a:	89 de                	mov    %ebx,%esi
    2b7c:	4c 89 e7             	mov    %r12,%rdi
    2b7f:	e8 2a fb ff ff       	callq  26ae <rio_readinitb>
    2b84:	48 8d b4 24 50 20 00 	lea    0x2050(%rsp),%rsi
    2b8b:	00 
    2b8c:	ba 00 20 00 00       	mov    $0x2000,%edx
    2b91:	4c 89 e7             	mov    %r12,%rdi
    2b94:	e8 42 fc ff ff       	callq  27db <rio_readlineb>
    2b99:	48 85 c0             	test   %rax,%rax
    2b9c:	0f 8e 86 03 00 00    	jle    2f28 <submitr+0x59c>
    2ba2:	48 8d 4c 24 2c       	lea    0x2c(%rsp),%rcx
    2ba7:	48 8d 94 24 50 60 00 	lea    0x6050(%rsp),%rdx
    2bae:	00 
    2baf:	48 8d bc 24 50 20 00 	lea    0x2050(%rsp),%rdi
    2bb6:	00 
    2bb7:	4c 8d 84 24 50 80 00 	lea    0x8050(%rsp),%r8
    2bbe:	00 
    2bbf:	48 8d 35 b6 1a 00 00 	lea    0x1ab6(%rip),%rsi        # 467c <trans_char+0xac>
    2bc6:	b8 00 00 00 00       	mov    $0x0,%eax
    2bcb:	e8 c0 e7 ff ff       	callq  1390 <__isoc99_sscanf@plt>
    2bd0:	48 8d b4 24 50 20 00 	lea    0x2050(%rsp),%rsi
    2bd7:	00 
    2bd8:	b9 03 00 00 00       	mov    $0x3,%ecx
    2bdd:	48 8d 3d af 1a 00 00 	lea    0x1aaf(%rip),%rdi        # 4693 <trans_char+0xc3>
    2be4:	f3 a6                	repz cmpsb %es:(%rdi),%ds:(%rsi)
    2be6:	0f 97 c0             	seta   %al
    2be9:	1c 00                	sbb    $0x0,%al
    2beb:	84 c0                	test   %al,%al
    2bed:	0f 84 b3 03 00 00    	je     2fa6 <submitr+0x61a>
    2bf3:	48 8d b4 24 50 20 00 	lea    0x2050(%rsp),%rsi
    2bfa:	00 
    2bfb:	48 8d 7c 24 40       	lea    0x40(%rsp),%rdi
    2c00:	ba 00 20 00 00       	mov    $0x2000,%edx
    2c05:	e8 d1 fb ff ff       	callq  27db <rio_readlineb>
    2c0a:	48 85 c0             	test   %rax,%rax
    2c0d:	7f c1                	jg     2bd0 <submitr+0x244>
    2c0f:	48 b8 45 72 72 6f 72 	movabs $0x43203a726f727245,%rax
    2c16:	3a 20 43 
    2c19:	48 ba 6c 69 65 6e 74 	movabs $0x6e7520746e65696c,%rdx
    2c20:	20 75 6e 
    2c23:	48 89 45 00          	mov    %rax,0x0(%rbp)
    2c27:	48 89 55 08          	mov    %rdx,0x8(%rbp)
    2c2b:	48 b8 61 62 6c 65 20 	movabs $0x206f7420656c6261,%rax
    2c32:	74 6f 20 
    2c35:	48 ba 72 65 61 64 20 	movabs $0x6165682064616572,%rdx
    2c3c:	68 65 61 
    2c3f:	48 89 45 10          	mov    %rax,0x10(%rbp)
    2c43:	48 89 55 18          	mov    %rdx,0x18(%rbp)
    2c47:	48 b8 64 65 72 73 20 	movabs $0x6f72662073726564,%rax
    2c4e:	66 72 6f 
    2c51:	48 ba 6d 20 74 68 65 	movabs $0x657220656874206d,%rdx
    2c58:	20 72 65 
    2c5b:	48 89 45 20          	mov    %rax,0x20(%rbp)
    2c5f:	48 89 55 28          	mov    %rdx,0x28(%rbp)
    2c63:	48 b8 73 75 6c 74 20 	movabs $0x72657320746c7573,%rax
    2c6a:	73 65 72 
    2c6d:	48 89 45 30          	mov    %rax,0x30(%rbp)
    2c71:	c7 45 38 76 65 72 00 	movl   $0x726576,0x38(%rbp)
    2c78:	89 df                	mov    %ebx,%edi
    2c7a:	e8 81 e6 ff ff       	callq  1300 <close@plt>
    2c7f:	b8 ff ff ff ff       	mov    $0xffffffff,%eax
    2c84:	48 8b 9c 24 58 a0 00 	mov    0xa058(%rsp),%rbx
    2c8b:	00 
    2c8c:	64 48 33 1c 25 28 00 	xor    %fs:0x28,%rbx
    2c93:	00 00 
    2c95:	0f 85 7e 04 00 00    	jne    3119 <submitr+0x78d>
    2c9b:	48 81 c4 68 a0 00 00 	add    $0xa068,%rsp
    2ca2:	5b                   	pop    %rbx
    2ca3:	5d                   	pop    %rbp
    2ca4:	41 5c                	pop    %r12
    2ca6:	41 5d                	pop    %r13
    2ca8:	41 5e                	pop    %r14
    2caa:	41 5f                	pop    %r15
    2cac:	c3                   	retq   
    2cad:	48 b8 45 72 72 6f 72 	movabs $0x43203a726f727245,%rax
    2cb4:	3a 20 43 
    2cb7:	48 ba 6c 69 65 6e 74 	movabs $0x6e7520746e65696c,%rdx
    2cbe:	20 75 6e 
    2cc1:	48 89 45 00          	mov    %rax,0x0(%rbp)
    2cc5:	48 89 55 08          	mov    %rdx,0x8(%rbp)
    2cc9:	48 b8 61 62 6c 65 20 	movabs $0x206f7420656c6261,%rax
    2cd0:	74 6f 20 
    2cd3:	48 ba 63 72 65 61 74 	movabs $0x7320657461657263,%rdx
    2cda:	65 20 73 
    2cdd:	48 89 45 10          	mov    %rax,0x10(%rbp)
    2ce1:	48 89 55 18          	mov    %rdx,0x18(%rbp)
    2ce5:	c7 45 20 6f 63 6b 65 	movl   $0x656b636f,0x20(%rbp)
    2cec:	66 c7 45 24 74 00    	movw   $0x74,0x24(%rbp)
    2cf2:	b8 ff ff ff ff       	mov    $0xffffffff,%eax
    2cf7:	eb 8b                	jmp    2c84 <submitr+0x2f8>
    2cf9:	48 b8 45 72 72 6f 72 	movabs $0x44203a726f727245,%rax
    2d00:	3a 20 44 
    2d03:	48 ba 4e 53 20 69 73 	movabs $0x6e7520736920534e,%rdx
    2d0a:	20 75 6e 
    2d0d:	48 89 45 00          	mov    %rax,0x0(%rbp)
    2d11:	48 89 55 08          	mov    %rdx,0x8(%rbp)
    2d15:	48 b8 61 62 6c 65 20 	movabs $0x206f7420656c6261,%rax
    2d1c:	74 6f 20 
    2d1f:	48 ba 72 65 73 6f 6c 	movabs $0x2065766c6f736572,%rdx
    2d26:	76 65 20 
    2d29:	48 89 45 10          	mov    %rax,0x10(%rbp)
    2d2d:	48 89 55 18          	mov    %rdx,0x18(%rbp)
    2d31:	48 b8 73 65 72 76 65 	movabs $0x6120726576726573,%rax
    2d38:	72 20 61 
    2d3b:	48 89 45 20          	mov    %rax,0x20(%rbp)
    2d3f:	c7 45 28 64 64 72 65 	movl   $0x65726464,0x28(%rbp)
    2d46:	66 c7 45 2c 73 73    	movw   $0x7373,0x2c(%rbp)
    2d4c:	c6 45 2e 00          	movb   $0x0,0x2e(%rbp)
    2d50:	89 df                	mov    %ebx,%edi
    2d52:	e8 a9 e5 ff ff       	callq  1300 <close@plt>
    2d57:	b8 ff ff ff ff       	mov    $0xffffffff,%eax
    2d5c:	e9 23 ff ff ff       	jmpq   2c84 <submitr+0x2f8>
    2d61:	48 b8 45 72 72 6f 72 	movabs $0x55203a726f727245,%rax
    2d68:	3a 20 55 
    2d6b:	48 ba 6e 61 62 6c 65 	movabs $0x6f7420656c62616e,%rdx
    2d72:	20 74 6f 
    2d75:	48 89 45 00          	mov    %rax,0x0(%rbp)
    2d79:	48 89 55 08          	mov    %rdx,0x8(%rbp)
    2d7d:	48 b8 20 63 6f 6e 6e 	movabs $0x7463656e6e6f6320,%rax
    2d84:	65 63 74 
    2d87:	48 ba 20 74 6f 20 74 	movabs $0x20656874206f7420,%rdx
    2d8e:	68 65 20 
    2d91:	48 89 45 10          	mov    %rax,0x10(%rbp)
    2d95:	48 89 55 18          	mov    %rdx,0x18(%rbp)
    2d99:	c7 45 20 73 65 72 76 	movl   $0x76726573,0x20(%rbp)
    2da0:	66 c7 45 24 65 72    	movw   $0x7265,0x24(%rbp)
    2da6:	c6 45 26 00          	movb   $0x0,0x26(%rbp)
    2daa:	89 df                	mov    %ebx,%edi
    2dac:	e8 4f e5 ff ff       	callq  1300 <close@plt>
    2db1:	b8 ff ff ff ff       	mov    $0xffffffff,%eax
    2db6:	e9 c9 fe ff ff       	jmpq   2c84 <submitr+0x2f8>
    2dbb:	48 b8 45 72 72 6f 72 	movabs $0x52203a726f727245,%rax
    2dc2:	3a 20 52 
    2dc5:	48 ba 65 73 75 6c 74 	movabs $0x747320746c757365,%rdx
    2dcc:	20 73 74 
    2dcf:	48 89 45 00          	mov    %rax,0x0(%rbp)
    2dd3:	48 89 55 08          	mov    %rdx,0x8(%rbp)
    2dd7:	48 b8 72 69 6e 67 20 	movabs $0x6f6f7420676e6972,%rax
    2dde:	74 6f 6f 
    2de1:	48 ba 20 6c 61 72 67 	movabs $0x202e656772616c20,%rdx
    2de8:	65 2e 20 
    2deb:	48 89 45 10          	mov    %rax,0x10(%rbp)
    2def:	48 89 55 18          	mov    %rdx,0x18(%rbp)
    2df3:	48 b8 49 6e 63 72 65 	movabs $0x6573616572636e49,%rax
    2dfa:	61 73 65 
    2dfd:	48 ba 20 53 55 42 4d 	movabs $0x5254494d42555320,%rdx
    2e04:	49 54 52 
    2e07:	48 89 45 20          	mov    %rax,0x20(%rbp)
    2e0b:	48 89 55 28          	mov    %rdx,0x28(%rbp)
    2e0f:	48 b8 5f 4d 41 58 42 	movabs $0x46554258414d5f,%rax
    2e16:	55 46 00 
    2e19:	48 89 45 30          	mov    %rax,0x30(%rbp)
    2e1d:	89 df                	mov    %ebx,%edi
    2e1f:	e8 dc e4 ff ff       	callq  1300 <close@plt>
    2e24:	b8 ff ff ff ff       	mov    $0xffffffff,%eax
    2e29:	e9 56 fe ff ff       	jmpq   2c84 <submitr+0x2f8>
    2e2e:	48 b8 45 72 72 6f 72 	movabs $0x52203a726f727245,%rax
    2e35:	3a 20 52 
    2e38:	48 ba 65 73 75 6c 74 	movabs $0x747320746c757365,%rdx
    2e3f:	20 73 74 
    2e42:	48 89 45 00          	mov    %rax,0x0(%rbp)
    2e46:	48 89 55 08          	mov    %rdx,0x8(%rbp)
    2e4a:	48 b8 72 69 6e 67 20 	movabs $0x6e6f6320676e6972,%rax
    2e51:	63 6f 6e 
    2e54:	48 ba 74 61 69 6e 73 	movabs $0x6e6120736e696174,%rdx
    2e5b:	20 61 6e 
    2e5e:	48 89 45 10          	mov    %rax,0x10(%rbp)
    2e62:	48 89 55 18          	mov    %rdx,0x18(%rbp)
    2e66:	48 b8 20 69 6c 6c 65 	movabs $0x6c6167656c6c6920,%rax
    2e6d:	67 61 6c 
    2e70:	48 ba 20 6f 72 20 75 	movabs $0x72706e7520726f20,%rdx
    2e77:	6e 70 72 
    2e7a:	48 89 45 20          	mov    %rax,0x20(%rbp)
    2e7e:	48 89 55 28          	mov    %rdx,0x28(%rbp)
    2e82:	48 b8 69 6e 74 61 62 	movabs $0x20656c6261746e69,%rax
    2e89:	6c 65 20 
    2e8c:	48 ba 63 68 61 72 61 	movabs $0x6574636172616863,%rdx
    2e93:	63 74 65 
    2e96:	48 89 45 30          	mov    %rax,0x30(%rbp)
    2e9a:	48 89 55 38          	mov    %rdx,0x38(%rbp)
    2e9e:	66 c7 45 40 72 2e    	movw   $0x2e72,0x40(%rbp)
    2ea4:	c6 45 42 00          	movb   $0x0,0x42(%rbp)
    2ea8:	89 df                	mov    %ebx,%edi
    2eaa:	e8 51 e4 ff ff       	callq  1300 <close@plt>
    2eaf:	b8 ff ff ff ff       	mov    $0xffffffff,%eax
    2eb4:	e9 cb fd ff ff       	jmpq   2c84 <submitr+0x2f8>
    2eb9:	48 b8 45 72 72 6f 72 	movabs $0x43203a726f727245,%rax
    2ec0:	3a 20 43 
    2ec3:	48 ba 6c 69 65 6e 74 	movabs $0x6e7520746e65696c,%rdx
    2eca:	20 75 6e 
    2ecd:	48 89 45 00          	mov    %rax,0x0(%rbp)
    2ed1:	48 89 55 08          	mov    %rdx,0x8(%rbp)
    2ed5:	48 b8 61 62 6c 65 20 	movabs $0x206f7420656c6261,%rax
    2edc:	74 6f 20 
    2edf:	48 ba 77 72 69 74 65 	movabs $0x6f74206574697277,%rdx
    2ee6:	20 74 6f 
    2ee9:	48 89 45 10          	mov    %rax,0x10(%rbp)
    2eed:	48 89 55 18          	mov    %rdx,0x18(%rbp)
    2ef1:	48 b8 20 74 68 65 20 	movabs $0x7365722065687420,%rax
    2ef8:	72 65 73 
    2efb:	48 ba 75 6c 74 20 73 	movabs $0x7672657320746c75,%rdx
    2f02:	65 72 76 
    2f05:	48 89 45 20          	mov    %rax,0x20(%rbp)
    2f09:	48 89 55 28          	mov    %rdx,0x28(%rbp)
    2f0d:	66 c7 45 30 65 72    	movw   $0x7265,0x30(%rbp)
    2f13:	c6 45 32 00          	movb   $0x0,0x32(%rbp)
    2f17:	89 df                	mov    %ebx,%edi
    2f19:	e8 e2 e3 ff ff       	callq  1300 <close@plt>
    2f1e:	b8 ff ff ff ff       	mov    $0xffffffff,%eax
    2f23:	e9 5c fd ff ff       	jmpq   2c84 <submitr+0x2f8>
    2f28:	48 b8 45 72 72 6f 72 	movabs $0x43203a726f727245,%rax
    2f2f:	3a 20 43 
    2f32:	48 ba 6c 69 65 6e 74 	movabs $0x6e7520746e65696c,%rdx
    2f39:	20 75 6e 
    2f3c:	48 89 45 00          	mov    %rax,0x0(%rbp)
    2f40:	48 89 55 08          	mov    %rdx,0x8(%rbp)
    2f44:	48 b8 61 62 6c 65 20 	movabs $0x206f7420656c6261,%rax
    2f4b:	74 6f 20 
    2f4e:	48 ba 72 65 61 64 20 	movabs $0x7269662064616572,%rdx
    2f55:	66 69 72 
    2f58:	48 89 45 10          	mov    %rax,0x10(%rbp)
    2f5c:	48 89 55 18          	mov    %rdx,0x18(%rbp)
    2f60:	48 b8 73 74 20 68 65 	movabs $0x6564616568207473,%rax
    2f67:	61 64 65 
    2f6a:	48 ba 72 20 66 72 6f 	movabs $0x72206d6f72662072,%rdx
    2f71:	6d 20 72 
    2f74:	48 89 45 20          	mov    %rax,0x20(%rbp)
    2f78:	48 89 55 28          	mov    %rdx,0x28(%rbp)
    2f7c:	48 b8 65 73 75 6c 74 	movabs $0x657320746c757365,%rax
    2f83:	20 73 65 
    2f86:	48 89 45 30          	mov    %rax,0x30(%rbp)
    2f8a:	c7 45 38 72 76 65 72 	movl   $0x72657672,0x38(%rbp)
    2f91:	c6 45 3c 00          	movb   $0x0,0x3c(%rbp)
    2f95:	89 df                	mov    %ebx,%edi
    2f97:	e8 64 e3 ff ff       	callq  1300 <close@plt>
    2f9c:	b8 ff ff ff ff       	mov    $0xffffffff,%eax
    2fa1:	e9 de fc ff ff       	jmpq   2c84 <submitr+0x2f8>
    2fa6:	48 8d b4 24 50 20 00 	lea    0x2050(%rsp),%rsi
    2fad:	00 
    2fae:	48 8d 7c 24 40       	lea    0x40(%rsp),%rdi
    2fb3:	ba 00 20 00 00       	mov    $0x2000,%edx
    2fb8:	e8 1e f8 ff ff       	callq  27db <rio_readlineb>
    2fbd:	48 85 c0             	test   %rax,%rax
    2fc0:	0f 8e 96 00 00 00    	jle    305c <submitr+0x6d0>
    2fc6:	44 8b 44 24 2c       	mov    0x2c(%rsp),%r8d
    2fcb:	41 81 f8 c8 00 00 00 	cmp    $0xc8,%r8d
    2fd2:	0f 85 08 01 00 00    	jne    30e0 <submitr+0x754>
    2fd8:	48 8d b4 24 50 20 00 	lea    0x2050(%rsp),%rsi
    2fdf:	00 
    2fe0:	48 89 ef             	mov    %rbp,%rdi
    2fe3:	e8 a8 e2 ff ff       	callq  1290 <strcpy@plt>
    2fe8:	89 df                	mov    %ebx,%edi
    2fea:	e8 11 e3 ff ff       	callq  1300 <close@plt>
    2fef:	b9 04 00 00 00       	mov    $0x4,%ecx
    2ff4:	48 8d 3d 92 16 00 00 	lea    0x1692(%rip),%rdi        # 468d <trans_char+0xbd>
    2ffb:	48 89 ee             	mov    %rbp,%rsi
    2ffe:	f3 a6                	repz cmpsb %es:(%rdi),%ds:(%rsi)
    3000:	0f 97 c0             	seta   %al
    3003:	1c 00                	sbb    $0x0,%al
    3005:	0f be c0             	movsbl %al,%eax
    3008:	85 c0                	test   %eax,%eax
    300a:	0f 84 74 fc ff ff    	je     2c84 <submitr+0x2f8>
    3010:	b9 05 00 00 00       	mov    $0x5,%ecx
    3015:	48 8d 3d 75 16 00 00 	lea    0x1675(%rip),%rdi        # 4691 <trans_char+0xc1>
    301c:	48 89 ee             	mov    %rbp,%rsi
    301f:	f3 a6                	repz cmpsb %es:(%rdi),%ds:(%rsi)
    3021:	0f 97 c0             	seta   %al
    3024:	1c 00                	sbb    $0x0,%al
    3026:	0f be c0             	movsbl %al,%eax
    3029:	85 c0                	test   %eax,%eax
    302b:	0f 84 53 fc ff ff    	je     2c84 <submitr+0x2f8>
    3031:	b9 03 00 00 00       	mov    $0x3,%ecx
    3036:	48 8d 3d 59 16 00 00 	lea    0x1659(%rip),%rdi        # 4696 <trans_char+0xc6>
    303d:	48 89 ee             	mov    %rbp,%rsi
    3040:	f3 a6                	repz cmpsb %es:(%rdi),%ds:(%rsi)
    3042:	0f 97 c0             	seta   %al
    3045:	1c 00                	sbb    $0x0,%al
    3047:	0f be c0             	movsbl %al,%eax
    304a:	85 c0                	test   %eax,%eax
    304c:	0f 84 32 fc ff ff    	je     2c84 <submitr+0x2f8>
    3052:	b8 ff ff ff ff       	mov    $0xffffffff,%eax
    3057:	e9 28 fc ff ff       	jmpq   2c84 <submitr+0x2f8>
    305c:	48 b8 45 72 72 6f 72 	movabs $0x43203a726f727245,%rax
    3063:	3a 20 43 
    3066:	48 ba 6c 69 65 6e 74 	movabs $0x6e7520746e65696c,%rdx
    306d:	20 75 6e 
    3070:	48 89 45 00          	mov    %rax,0x0(%rbp)
    3074:	48 89 55 08          	mov    %rdx,0x8(%rbp)
    3078:	48 b8 61 62 6c 65 20 	movabs $0x206f7420656c6261,%rax
    307f:	74 6f 20 
    3082:	48 ba 72 65 61 64 20 	movabs $0x6174732064616572,%rdx
    3089:	73 74 61 
    308c:	48 89 45 10          	mov    %rax,0x10(%rbp)
    3090:	48 89 55 18          	mov    %rdx,0x18(%rbp)
    3094:	48 b8 74 75 73 20 6d 	movabs $0x7373656d20737574,%rax
    309b:	65 73 73 
    309e:	48 ba 61 67 65 20 66 	movabs $0x6d6f726620656761,%rdx
    30a5:	72 6f 6d 
    30a8:	48 89 45 20          	mov    %rax,0x20(%rbp)
    30ac:	48 89 55 28          	mov    %rdx,0x28(%rbp)
    30b0:	48 b8 20 72 65 73 75 	movabs $0x20746c7573657220,%rax
    30b7:	6c 74 20 
    30ba:	48 89 45 30          	mov    %rax,0x30(%rbp)
    30be:	c7 45 38 73 65 72 76 	movl   $0x76726573,0x38(%rbp)
    30c5:	66 c7 45 3c 65 72    	movw   $0x7265,0x3c(%rbp)
    30cb:	c6 45 3e 00          	movb   $0x0,0x3e(%rbp)
    30cf:	89 df                	mov    %ebx,%edi
    30d1:	e8 2a e2 ff ff       	callq  1300 <close@plt>
    30d6:	b8 ff ff ff ff       	mov    $0xffffffff,%eax
    30db:	e9 a4 fb ff ff       	jmpq   2c84 <submitr+0x2f8>
    30e0:	4c 8d 8c 24 50 80 00 	lea    0x8050(%rsp),%r9
    30e7:	00 
    30e8:	48 8d 0d 59 15 00 00 	lea    0x1559(%rip),%rcx        # 4648 <trans_char+0x78>
    30ef:	48 c7 c2 ff ff ff ff 	mov    $0xffffffffffffffff,%rdx
    30f6:	be 01 00 00 00       	mov    $0x1,%esi
    30fb:	48 89 ef             	mov    %rbp,%rdi
    30fe:	b8 00 00 00 00       	mov    $0x0,%eax
    3103:	e8 38 e3 ff ff       	callq  1440 <__sprintf_chk@plt>
    3108:	89 df                	mov    %ebx,%edi
    310a:	e8 f1 e1 ff ff       	callq  1300 <close@plt>
    310f:	b8 ff ff ff ff       	mov    $0xffffffff,%eax
    3114:	e9 6b fb ff ff       	jmpq   2c84 <submitr+0x2f8>
    3119:	e8 a2 e1 ff ff       	callq  12c0 <__stack_chk_fail@plt>

000000000000311e <init_timeout>:
    311e:	f3 0f 1e fa          	endbr64 
    3122:	85 ff                	test   %edi,%edi
    3124:	74 26                	je     314c <init_timeout+0x2e>
    3126:	53                   	push   %rbx
    3127:	89 fb                	mov    %edi,%ebx
    3129:	78 1a                	js     3145 <init_timeout+0x27>
    312b:	48 8d 35 8e f5 ff ff 	lea    -0xa72(%rip),%rsi        # 26c0 <sigalrm_handler>
    3132:	bf 0e 00 00 00       	mov    $0xe,%edi
    3137:	e8 e4 e1 ff ff       	callq  1320 <signal@plt>
    313c:	89 df                	mov    %ebx,%edi
    313e:	e8 ad e1 ff ff       	callq  12f0 <alarm@plt>
    3143:	5b                   	pop    %rbx
    3144:	c3                   	retq   
    3145:	bb 00 00 00 00       	mov    $0x0,%ebx
    314a:	eb df                	jmp    312b <init_timeout+0xd>
    314c:	c3                   	retq   

000000000000314d <init_driver>:
    314d:	f3 0f 1e fa          	endbr64 
    3151:	41 54                	push   %r12
    3153:	55                   	push   %rbp
    3154:	53                   	push   %rbx
    3155:	48 83 ec 20          	sub    $0x20,%rsp
    3159:	48 89 fd             	mov    %rdi,%rbp
    315c:	64 48 8b 04 25 28 00 	mov    %fs:0x28,%rax
    3163:	00 00 
    3165:	48 89 44 24 18       	mov    %rax,0x18(%rsp)
    316a:	31 c0                	xor    %eax,%eax
    316c:	be 01 00 00 00       	mov    $0x1,%esi
    3171:	bf 0d 00 00 00       	mov    $0xd,%edi
    3176:	e8 a5 e1 ff ff       	callq  1320 <signal@plt>
    317b:	be 01 00 00 00       	mov    $0x1,%esi
    3180:	bf 1d 00 00 00       	mov    $0x1d,%edi
    3185:	e8 96 e1 ff ff       	callq  1320 <signal@plt>
    318a:	be 01 00 00 00       	mov    $0x1,%esi
    318f:	bf 1d 00 00 00       	mov    $0x1d,%edi
    3194:	e8 87 e1 ff ff       	callq  1320 <signal@plt>
    3199:	ba 00 00 00 00       	mov    $0x0,%edx
    319e:	be 01 00 00 00       	mov    $0x1,%esi
    31a3:	bf 02 00 00 00       	mov    $0x2,%edi
    31a8:	e8 a3 e2 ff ff       	callq  1450 <socket@plt>
    31ad:	85 c0                	test   %eax,%eax
    31af:	0f 88 9c 00 00 00    	js     3251 <init_driver+0x104>
    31b5:	89 c3                	mov    %eax,%ebx
    31b7:	48 8d 3d db 14 00 00 	lea    0x14db(%rip),%rdi        # 4699 <trans_char+0xc9>
    31be:	e8 6d e1 ff ff       	callq  1330 <gethostbyname@plt>
    31c3:	48 85 c0             	test   %rax,%rax
    31c6:	0f 84 d1 00 00 00    	je     329d <init_driver+0x150>
    31cc:	49 89 e4             	mov    %rsp,%r12
    31cf:	48 c7 04 24 00 00 00 	movq   $0x0,(%rsp)
    31d6:	00 
    31d7:	48 c7 44 24 08 00 00 	movq   $0x0,0x8(%rsp)
    31de:	00 00 
    31e0:	66 c7 04 24 02 00    	movw   $0x2,(%rsp)
    31e6:	48 63 50 14          	movslq 0x14(%rax),%rdx
    31ea:	48 8b 40 18          	mov    0x18(%rax),%rax
    31ee:	48 8b 30             	mov    (%rax),%rsi
    31f1:	48 8d 7c 24 04       	lea    0x4(%rsp),%rdi
    31f6:	b9 0c 00 00 00       	mov    $0xc,%ecx
    31fb:	e8 40 e1 ff ff       	callq  1340 <__memmove_chk@plt>
    3200:	66 c7 44 24 02 3c 9a 	movw   $0x9a3c,0x2(%rsp)
    3207:	ba 10 00 00 00       	mov    $0x10,%edx
    320c:	4c 89 e6             	mov    %r12,%rsi
    320f:	89 df                	mov    %ebx,%edi
    3211:	e8 fa e1 ff ff       	callq  1410 <connect@plt>
    3216:	85 c0                	test   %eax,%eax
    3218:	0f 88 e7 00 00 00    	js     3305 <init_driver+0x1b8>
    321e:	89 df                	mov    %ebx,%edi
    3220:	e8 db e0 ff ff       	callq  1300 <close@plt>
    3225:	66 c7 45 00 4f 4b    	movw   $0x4b4f,0x0(%rbp)
    322b:	c6 45 02 00          	movb   $0x0,0x2(%rbp)
    322f:	b8 00 00 00 00       	mov    $0x0,%eax
    3234:	48 8b 4c 24 18       	mov    0x18(%rsp),%rcx
    3239:	64 48 33 0c 25 28 00 	xor    %fs:0x28,%rcx
    3240:	00 00 
    3242:	0f 85 10 01 00 00    	jne    3358 <init_driver+0x20b>
    3248:	48 83 c4 20          	add    $0x20,%rsp
    324c:	5b                   	pop    %rbx
    324d:	5d                   	pop    %rbp
    324e:	41 5c                	pop    %r12
    3250:	c3                   	retq   
    3251:	48 b8 45 72 72 6f 72 	movabs $0x43203a726f727245,%rax
    3258:	3a 20 43 
    325b:	48 ba 6c 69 65 6e 74 	movabs $0x6e7520746e65696c,%rdx
    3262:	20 75 6e 
    3265:	48 89 45 00          	mov    %rax,0x0(%rbp)
    3269:	48 89 55 08          	mov    %rdx,0x8(%rbp)
    326d:	48 b8 61 62 6c 65 20 	movabs $0x206f7420656c6261,%rax
    3274:	74 6f 20 
    3277:	48 ba 63 72 65 61 74 	movabs $0x7320657461657263,%rdx
    327e:	65 20 73 
    3281:	48 89 45 10          	mov    %rax,0x10(%rbp)
    3285:	48 89 55 18          	mov    %rdx,0x18(%rbp)
    3289:	c7 45 20 6f 63 6b 65 	movl   $0x656b636f,0x20(%rbp)
    3290:	66 c7 45 24 74 00    	movw   $0x74,0x24(%rbp)
    3296:	b8 ff ff ff ff       	mov    $0xffffffff,%eax
    329b:	eb 97                	jmp    3234 <init_driver+0xe7>
    329d:	48 b8 45 72 72 6f 72 	movabs $0x44203a726f727245,%rax
    32a4:	3a 20 44 
    32a7:	48 ba 4e 53 20 69 73 	movabs $0x6e7520736920534e,%rdx
    32ae:	20 75 6e 
    32b1:	48 89 45 00          	mov    %rax,0x0(%rbp)
    32b5:	48 89 55 08          	mov    %rdx,0x8(%rbp)
    32b9:	48 b8 61 62 6c 65 20 	movabs $0x206f7420656c6261,%rax
    32c0:	74 6f 20 
    32c3:	48 ba 72 65 73 6f 6c 	movabs $0x2065766c6f736572,%rdx
    32ca:	76 65 20 
    32cd:	48 89 45 10          	mov    %rax,0x10(%rbp)
    32d1:	48 89 55 18          	mov    %rdx,0x18(%rbp)
    32d5:	48 b8 73 65 72 76 65 	movabs $0x6120726576726573,%rax
    32dc:	72 20 61 
    32df:	48 89 45 20          	mov    %rax,0x20(%rbp)
    32e3:	c7 45 28 64 64 72 65 	movl   $0x65726464,0x28(%rbp)
    32ea:	66 c7 45 2c 73 73    	movw   $0x7373,0x2c(%rbp)
    32f0:	c6 45 2e 00          	movb   $0x0,0x2e(%rbp)
    32f4:	89 df                	mov    %ebx,%edi
    32f6:	e8 05 e0 ff ff       	callq  1300 <close@plt>
    32fb:	b8 ff ff ff ff       	mov    $0xffffffff,%eax
    3300:	e9 2f ff ff ff       	jmpq   3234 <init_driver+0xe7>
    3305:	48 b8 45 72 72 6f 72 	movabs $0x55203a726f727245,%rax
    330c:	3a 20 55 
    330f:	48 ba 6e 61 62 6c 65 	movabs $0x6f7420656c62616e,%rdx
    3316:	20 74 6f 
    3319:	48 89 45 00          	mov    %rax,0x0(%rbp)
    331d:	48 89 55 08          	mov    %rdx,0x8(%rbp)
    3321:	48 b8 20 63 6f 6e 6e 	movabs $0x7463656e6e6f6320,%rax
    3328:	65 63 74 
    332b:	48 ba 20 74 6f 20 73 	movabs $0x76726573206f7420,%rdx
    3332:	65 72 76 
    3335:	48 89 45 10          	mov    %rax,0x10(%rbp)
    3339:	48 89 55 18          	mov    %rdx,0x18(%rbp)
    333d:	66 c7 45 20 65 72    	movw   $0x7265,0x20(%rbp)
    3343:	c6 45 22 00          	movb   $0x0,0x22(%rbp)
    3347:	89 df                	mov    %ebx,%edi
    3349:	e8 b2 df ff ff       	callq  1300 <close@plt>
    334e:	b8 ff ff ff ff       	mov    $0xffffffff,%eax
    3353:	e9 dc fe ff ff       	jmpq   3234 <init_driver+0xe7>
    3358:	e8 63 df ff ff       	callq  12c0 <__stack_chk_fail@plt>

000000000000335d <driver_post>:
    335d:	f3 0f 1e fa          	endbr64 
    3361:	53                   	push   %rbx
    3362:	4c 89 cb             	mov    %r9,%rbx
    3365:	45 85 c0             	test   %r8d,%r8d
    3368:	75 18                	jne    3382 <driver_post+0x25>
    336a:	48 85 ff             	test   %rdi,%rdi
    336d:	74 05                	je     3374 <driver_post+0x17>
    336f:	80 3f 00             	cmpb   $0x0,(%rdi)
    3372:	75 37                	jne    33ab <driver_post+0x4e>
    3374:	66 c7 03 4f 4b       	movw   $0x4b4f,(%rbx)
    3379:	c6 43 02 00          	movb   $0x0,0x2(%rbx)
    337d:	44 89 c0             	mov    %r8d,%eax
    3380:	5b                   	pop    %rbx
    3381:	c3                   	retq   
    3382:	48 89 ca             	mov    %rcx,%rdx
    3385:	48 8d 35 25 13 00 00 	lea    0x1325(%rip),%rsi        # 46b1 <trans_char+0xe1>
    338c:	bf 01 00 00 00       	mov    $0x1,%edi
    3391:	b8 00 00 00 00       	mov    $0x0,%eax
    3396:	e8 15 e0 ff ff       	callq  13b0 <__printf_chk@plt>
    339b:	66 c7 03 4f 4b       	movw   $0x4b4f,(%rbx)
    33a0:	c6 43 02 00          	movb   $0x0,0x2(%rbx)
    33a4:	b8 00 00 00 00       	mov    $0x0,%eax
    33a9:	eb d5                	jmp    3380 <driver_post+0x23>
    33ab:	48 83 ec 08          	sub    $0x8,%rsp
    33af:	41 51                	push   %r9
    33b1:	49 89 c9             	mov    %rcx,%r9
    33b4:	49 89 d0             	mov    %rdx,%r8
    33b7:	48 89 f9             	mov    %rdi,%rcx
    33ba:	48 89 f2             	mov    %rsi,%rdx
    33bd:	be 9a 3c 00 00       	mov    $0x3c9a,%esi
    33c2:	48 8d 3d d0 12 00 00 	lea    0x12d0(%rip),%rdi        # 4699 <trans_char+0xc9>
    33c9:	e8 be f5 ff ff       	callq  298c <submitr>
    33ce:	48 83 c4 10          	add    $0x10,%rsp
    33d2:	eb ac                	jmp    3380 <driver_post+0x23>

00000000000033d4 <check>:
    33d4:	f3 0f 1e fa          	endbr64 
    33d8:	89 f8                	mov    %edi,%eax
    33da:	c1 e8 1c             	shr    $0x1c,%eax
    33dd:	74 1d                	je     33fc <check+0x28>
    33df:	b9 00 00 00 00       	mov    $0x0,%ecx
    33e4:	83 f9 1f             	cmp    $0x1f,%ecx
    33e7:	7f 0d                	jg     33f6 <check+0x22>
    33e9:	89 f8                	mov    %edi,%eax
    33eb:	d3 e8                	shr    %cl,%eax
    33ed:	3c 0a                	cmp    $0xa,%al
    33ef:	74 11                	je     3402 <check+0x2e>
    33f1:	83 c1 08             	add    $0x8,%ecx
    33f4:	eb ee                	jmp    33e4 <check+0x10>
    33f6:	b8 01 00 00 00       	mov    $0x1,%eax
    33fb:	c3                   	retq   
    33fc:	b8 00 00 00 00       	mov    $0x0,%eax
    3401:	c3                   	retq   
    3402:	b8 00 00 00 00       	mov    $0x0,%eax
    3407:	c3                   	retq   

0000000000003408 <gencookie>:
    3408:	f3 0f 1e fa          	endbr64 
    340c:	53                   	push   %rbx
    340d:	83 c7 01             	add    $0x1,%edi
    3410:	e8 5b de ff ff       	callq  1270 <srandom@plt>
    3415:	e8 66 df ff ff       	callq  1380 <random@plt>
    341a:	48 89 c7             	mov    %rax,%rdi
    341d:	89 c3                	mov    %eax,%ebx
    341f:	e8 b0 ff ff ff       	callq  33d4 <check>
    3424:	85 c0                	test   %eax,%eax
    3426:	74 ed                	je     3415 <gencookie+0xd>
    3428:	89 d8                	mov    %ebx,%eax
    342a:	5b                   	pop    %rbx
    342b:	c3                   	retq   
    342c:	0f 1f 40 00          	nopl   0x0(%rax)

0000000000003430 <__libc_csu_init>:
    3430:	f3 0f 1e fa          	endbr64 
    3434:	41 57                	push   %r15
    3436:	4c 8d 3d 7b 38 00 00 	lea    0x387b(%rip),%r15        # 6cb8 <__frame_dummy_init_array_entry>
    343d:	41 56                	push   %r14
    343f:	49 89 d6             	mov    %rdx,%r14
    3442:	41 55                	push   %r13
    3444:	49 89 f5             	mov    %rsi,%r13
    3447:	41 54                	push   %r12
    3449:	41 89 fc             	mov    %edi,%r12d
    344c:	55                   	push   %rbp
    344d:	48 8d 2d 6c 38 00 00 	lea    0x386c(%rip),%rbp        # 6cc0 <__do_global_dtors_aux_fini_array_entry>
    3454:	53                   	push   %rbx
    3455:	4c 29 fd             	sub    %r15,%rbp
    3458:	48 83 ec 08          	sub    $0x8,%rsp
    345c:	e8 9f db ff ff       	callq  1000 <_init>
    3461:	48 c1 fd 03          	sar    $0x3,%rbp
    3465:	74 1f                	je     3486 <__libc_csu_init+0x56>
    3467:	31 db                	xor    %ebx,%ebx
    3469:	0f 1f 80 00 00 00 00 	nopl   0x0(%rax)
    3470:	4c 89 f2             	mov    %r14,%rdx
    3473:	4c 89 ee             	mov    %r13,%rsi
    3476:	44 89 e7             	mov    %r12d,%edi
    3479:	41 ff 14 df          	callq  *(%r15,%rbx,8)
    347d:	48 83 c3 01          	add    $0x1,%rbx
    3481:	48 39 dd             	cmp    %rbx,%rbp
    3484:	75 ea                	jne    3470 <__libc_csu_init+0x40>
    3486:	48 83 c4 08          	add    $0x8,%rsp
    348a:	5b                   	pop    %rbx
    348b:	5d                   	pop    %rbp
    348c:	41 5c                	pop    %r12
    348e:	41 5d                	pop    %r13
    3490:	41 5e                	pop    %r14
    3492:	41 5f                	pop    %r15
    3494:	c3                   	retq   
    3495:	66 66 2e 0f 1f 84 00 	data16 nopw %cs:0x0(%rax,%rax,1)
    349c:	00 00 00 00 

00000000000034a0 <__libc_csu_fini>:
    34a0:	f3 0f 1e fa          	endbr64 
    34a4:	c3                   	retq   

Disassembly of section .fini:

00000000000034a8 <_fini>:
    34a8:	f3 0f 1e fa          	endbr64 
    34ac:	48 83 ec 08          	sub    $0x8,%rsp
    34b0:	48 83 c4 08          	add    $0x8,%rsp
    34b4:	c3                   	retq   
